SH SERIES C/C++ Compiler (Ver. 6.0C)                                                                 14-Jun-2020 13:18:49  PAGE    1

************ OBJECT LISTING ************

FILE NAME: C:\Users\Luca\Desktop\Abschlussprüfung\15062020.c

SCT OFFSET   CODE       C LABEL     INSTRUCTION OPERAND    COMMENT

      15062020.c     1    #include "fxlib.h"
      15062020.c     2    #include "stdio.h"
      15062020.c     3    
      15062020.c     4    #define TRUE 1
      15062020.c     5    #define FALSE 0
      15062020.c     6    
      15062020.c     7    int drmCheck = 0;
      15062020.c     8    
      15062020.c     9    int AddIn_main(int isAppli, unsigned short OptionNum)
P   00000000              _AddIn_main:                     ; function: AddIn_main
                                                           ; frame size=4
    00000000 4F22                   STS.L       PR,@-R15
      15062020.c    10    {
      15062020.c    11        Bdisp_AllClr_DDVRAM();
    00000002 D307                   MOV.L       L1125+2,R3 ; _Bdisp_AllClr_DDVRAM
    00000004 430B                   JSR         @R3
    00000006 0009                   NOP
      15062020.c    12        drm();
    00000008 B0B0                   BSR         _drm
    0000000A 0009                   NOP
      15062020.c    13        if (drmCheck == 1){
    0000000C D305                   MOV.L       L1125+6,R3 ; _drmCheck
    0000000E 6032                   MOV.L       @R3,R0
    00000010 8801                   CMP/EQ      #1,R0
    00000012 8B01                   BF          L961
      15062020.c    14            firstMenu();
    00000014 B008                   BSR         _firstMenu
    00000016 0009                   NOP
    00000018              L961:                             
      15062020.c    15        }
      15062020.c    16        return 1;
      15062020.c    17    }
    00000018 4F26                   LDS.L       @R15+,PR
    0000001A 000B                   RTS
    0000001C E001                   MOV         #1,R0
    0000001E              L1125:                            
    0000001E 0000                   .DATA.W     0
    00000020 <00000000>             .DATA.L     _Bdisp_AllClr_DDVRAM
    00000024 <00000000>             .DATA.L     _drmCheck
      15062020.c    18    int firstMenu() {
    00000028              _firstMenu:                      ; function: firstMenu
                                                           ; frame size=28
                                                           ; used runtime library name:
                                                           ; __quick_evn_mvn
      15062020.c    19        unsigned int i;
      15062020.c    20        unsigned int auswahl = 3;
      15062020.c    21        unsigned int menuItemsX = 2;
      15062020.c    22        unsigned int menuItemsY = 3;
      15062020.c    23        unsigned int menuItemsNbr = 6;
      15062020.c    24        unsigned char * menuItems[] = {
      15062020.c    25            "Lernfeld 1",
      15062020.c    26            "Lernfeld 2",
      15062020.c    27            "Test3",
      15062020.c    28            "Test4",




SH SERIES C/C++ Compiler (Ver. 6.0C)                                                                 14-Jun-2020 13:18:49  PAGE    2


SCT OFFSET   CODE       C LABEL     INSTRUCTION OPERAND    COMMENT

      15062020.c    29            "Test5",
      15062020.c    30            "Test6"
      15062020.c    31        };
    00000028 D242                   MOV.L       L1126+6,R2 ; L352
    0000002A 7FE4                   ADD         #-28,R15
    0000002C D342                   MOV.L       L1126+10,R3; __quick_evn_mvn
    0000002E EE03                   MOV         #3,R14
    00000030 E806                   MOV         #6,R8
    00000032 61F3                   MOV         R15,R1
    00000034 7104                   ADD         #4,R1
    00000036 430B                   JSR         @R3
    00000038 E018                   MOV         #24,R0
      15062020.c    32        // TITLE 
      15062020.c    33        locate(1,1);
    0000003A E501                   MOV         #1,R5
    0000003C DD3F                   MOV.L       L1126+14,R13; _locate
    0000003E 4D0B                   JSR         @R13
    00000040 6453                   MOV         R5,R4
      15062020.c    34        Print((unsigned char*)"Spicker :D");  
    00000042 DC3F                   MOV.L       L1126+18,R12; _Print
    00000044 D43F                   MOV.L       L1126+22,R4; L359
    00000046 4C0B                   JSR         @R12
    00000048 0009                   NOP
      15062020.c    35        // Menu Items
      15062020.c    36        for(i=0; i < menuItemsNbr; i=i+1){
    0000004A EB00                   MOV         #0,R11
    0000004C 6AF3                   MOV         R15,R10
    0000004E 7A04                   ADD         #4,R10
    00000050 E903                   MOV         #3,R9
    00000052              L964:                             
      15062020.c    37            locate(menuItemsX, menuItemsY+i);
    00000052 6593                   MOV         R9,R5
    00000054 4D0B                   JSR         @R13
    00000056 E402                   MOV         #2,R4
      15062020.c    38            Print(menuItems[i]);
    00000058 4C0B                   JSR         @R12
    0000005A 64A6                   MOV.L       @R10+,R4
    0000005C 7B01                   ADD         #1,R11
    0000005E 3B82                   CMP/HS      R8,R11
    00000060 8FF7                   BF/S        L964
    00000062 7901                   ADD         #1,R9
    00000064 9863                   MOV.W       L1126,R8   ; H'7534
    00000066 6983                   MOV         R8,R9
    00000068 DA37                   MOV.L       L1126+26,R10; _Bdisp_AllClr_DDVRAM
    0000006A 79FE                   ADD         #-2,R9
    0000006C DB37                   MOV.L       L1126+30,R11; L366
      15062020.c    39        };
      15062020.c    40       
      15062020.c    41        // Cursor    
      15062020.c    42        while (1){
    0000006E              L966:                             
      15062020.c    43            unsigned int key;
      15062020.c    44            locate(1,auswahl);
    0000006E 65E3                   MOV         R14,R5
    00000070 4D0B                   JSR         @R13
    00000072 E401                   MOV         #1,R4
      15062020.c    45            Print((unsigned char*)">");       




SH SERIES C/C++ Compiler (Ver. 6.0C)                                                                 14-Jun-2020 13:18:49  PAGE    3


SCT OFFSET   CODE       C LABEL     INSTRUCTION OPERAND    COMMENT

    00000074 D436                   MOV.L       L1126+34,R4; L363
    00000076 4C0B                   JSR         @R12
    00000078 0009                   NOP
      15062020.c    46            GetKey(&key);
    0000007A D236                   MOV.L       L1126+38,R2; _GetKey
    0000007C 420B                   JSR         @R2
    0000007E 64F3                   MOV         R15,R4
      15062020.c    47            if(KEY_CTRL_UP == key) {
    00000080 9356                   MOV.W       L1126+2,R3 ; H'7542
    00000082 62F2                   MOV.L       @R15,R2
    00000084 3230                   CMP/EQ      R3,R2
    00000086 8B0E                   BF          L967
      15062020.c    48                if (auswahl == 3) {
    00000088 60E3                   MOV         R14,R0
    0000008A 8803                   CMP/EQ      #3,R0
    0000008C 8B05                   BF          L968
      15062020.c    49                    locate(1,auswahl);
    0000008E 65E3                   MOV         R14,R5
    00000090 4D0B                   JSR         @R13
    00000092 E401                   MOV         #1,R4
      15062020.c    50                    Print((unsigned char*)" ");
    00000094 4C0B                   JSR         @R12
    00000096 64B3                   MOV         R11,R4
      15062020.c    51                    auswahl = auswahl + 6;
    00000098 7E06                   ADD         #6,R14
    0000009A              L968:                             
      15062020.c    52                }
      15062020.c    53                locate(1,auswahl);
    0000009A 65E3                   MOV         R14,R5
    0000009C 4D0B                   JSR         @R13
    0000009E E401                   MOV         #1,R4
      15062020.c    54                Print((unsigned char*)" ");
    000000A0 4C0B                   JSR         @R12
    000000A2 64B3                   MOV         R11,R4
      15062020.c    55                auswahl = auswahl - 1;
    000000A4 7EFF                   ADD         #-1,R14
    000000A6              L967:                             
      15062020.c    56            };
      15062020.c    57            if(KEY_CTRL_DOWN == key) {
    000000A6 9344                   MOV.W       L1126+4,R3 ; H'7547
    000000A8 62F2                   MOV.L       @R15,R2
    000000AA 3230                   CMP/EQ      R3,R2
    000000AC 8B0E                   BF          L969
      15062020.c    58                if (auswahl == 8) {
    000000AE 60E3                   MOV         R14,R0
    000000B0 8808                   CMP/EQ      #8,R0
    000000B2 8B05                   BF          L970
      15062020.c    59                    locate(1,auswahl);
    000000B4 65E3                   MOV         R14,R5
    000000B6 4D0B                   JSR         @R13
    000000B8 E401                   MOV         #1,R4
      15062020.c    60                    Print((unsigned char*)" ");
    000000BA 4C0B                   JSR         @R12
    000000BC 64B3                   MOV         R11,R4
      15062020.c    61                    auswahl = auswahl - 6;
    000000BE 7EFA                   ADD         #-6,R14
    000000C0              L970:                             




SH SERIES C/C++ Compiler (Ver. 6.0C)                                                                 14-Jun-2020 13:18:49  PAGE    4


SCT OFFSET   CODE       C LABEL     INSTRUCTION OPERAND    COMMENT

      15062020.c    62                }
      15062020.c    63                locate(1,auswahl);
    000000C0 65E3                   MOV         R14,R5
    000000C2 4D0B                   JSR         @R13
    000000C4 E401                   MOV         #1,R4
      15062020.c    64                Print((unsigned char*)" ");
    000000C6 4C0B                   JSR         @R12
    000000C8 64B3                   MOV         R11,R4
      15062020.c    65                auswahl = auswahl + 1;
    000000CA 7E01                   ADD         #1,R14
    000000CC              L969:                             
      15062020.c    66            };
      15062020.c    67            if (KEY_CTRL_EXE == key) {
    000000CC 63F2                   MOV.L       @R15,R3
    000000CE 3380                   CMP/EQ      R8,R3
    000000D0 8B28                   BF          L971
      15062020.c    68                if (auswahl == 3) {
    000000D2 60E3                   MOV         R14,R0
    000000D4 8803                   CMP/EQ      #3,R0
    000000D6 8B03                   BF          L972
      15062020.c    69                    Bdisp_AllClr_DDVRAM();
    000000D8 4A0B                   JSR         @R10
    000000DA 0009                   NOP
      15062020.c    70                    lf1menu();
    000000DC B156                   BSR         _lf1menu
    000000DE 0009                   NOP
    000000E0              L972:                             
      15062020.c    71                }
      15062020.c    72                if (auswahl == 4) {
    000000E0 60E3                   MOV         R14,R0
    000000E2 8804                   CMP/EQ      #4,R0
    000000E4 8B03                   BF          L973
      15062020.c    73                    Bdisp_AllClr_DDVRAM();
    000000E6 4A0B                   JSR         @R10
    000000E8 0009                   NOP
      15062020.c    74                    lf2menu();
    000000EA B64F                   BSR         _lf2menu
    000000EC 0009                   NOP
    000000EE              L973:                             
      15062020.c    75                }
      15062020.c    76                if (auswahl == 5) {
    000000EE 60E3                   MOV         R14,R0
    000000F0 8805                   CMP/EQ      #5,R0
    000000F2 8B05                   BF          L974
      15062020.c    77                    locate(8,1);
    000000F4 E501                   MOV         #1,R5
    000000F6 4D0B                   JSR         @R13
    000000F8 E408                   MOV         #8,R4
      15062020.c    78                    Print((unsigned char*)"TEST3");
    000000FA D417                   MOV.L       L1126+42,R4; L375
    000000FC 4C0B                   JSR         @R12
    000000FE 0009                   NOP
    00000100              L974:                             
      15062020.c    79                }
      15062020.c    80                if (auswahl == 6) {
    00000100 60E3                   MOV         R14,R0
    00000102 8806                   CMP/EQ      #6,R0




SH SERIES C/C++ Compiler (Ver. 6.0C)                                                                 14-Jun-2020 13:18:49  PAGE    5


SCT OFFSET   CODE       C LABEL     INSTRUCTION OPERAND    COMMENT

    00000104 8B05                   BF          L975
      15062020.c    81                    locate(8,1);
    00000106 E501                   MOV         #1,R5
    00000108 4D0B                   JSR         @R13
    0000010A E408                   MOV         #8,R4
      15062020.c    82                    Print((unsigned char*)"TEST4");
    0000010C D413                   MOV.L       L1126+46,R4; L377
    0000010E 4C0B                   JSR         @R12
    00000110 0009                   NOP
    00000112              L975:                             
      15062020.c    83                }
      15062020.c    84                if (auswahl == 7) {
    00000112 60E3                   MOV         R14,R0
    00000114 8807                   CMP/EQ      #7,R0
    00000116 8B05                   BF          L971
      15062020.c    85                    locate(8,1);
    00000118 E501                   MOV         #1,R5
    0000011A 4D0B                   JSR         @R13
    0000011C E408                   MOV         #8,R4
      15062020.c    86                    Print((unsigned char*)"TEST5");
    0000011E D410                   MOV.L       L1126+50,R4; L379
    00000120 4C0B                   JSR         @R12
    00000122 0009                   NOP
    00000124              L971:                             
      15062020.c    87                }
      15062020.c    88            };
      15062020.c    89            if (KEY_CTRL_EXIT == key) {
    00000124 62F2                   MOV.L       @R15,R2
    00000126 3290                   CMP/EQ      R9,R2
    00000128 8BA1                   BF          L966
      15062020.c    90                Bdisp_AllClr_DDVRAM();
    0000012A A01B                   BRA         L1122
    0000012C 0009                   NOP
    0000012E              L1126:                            
    0000012E 7534                   .DATA.W     H'7534
    00000130 7542                   .DATA.W     H'7542
    00000132 7547                   .DATA.W     H'7547
    00000134 <00000000>             .DATA.L     L352
    00000138 <00000000>             .DATA.L     __quick_evn_mvn
    0000013C <00000000>             .DATA.L     _locate
    00000140 <00000000>             .DATA.L     _Print
    00000144 <00000000>             .DATA.L     L359
    00000148 <00000000>             .DATA.L     _Bdisp_AllClr_DDVRAM
    0000014C <00000000>             .DATA.L     L366
    00000150 <00000000>             .DATA.L     L363
    00000154 <00000000>             .DATA.L     _GetKey
    00000158 <00000000>             .DATA.L     L375
    0000015C <00000000>             .DATA.L     L377
    00000160 <00000000>             .DATA.L     L379
    00000164              L1122:                            
    00000164 4A0B                   JSR         @R10
    00000166 0009                   NOP
    00000168 AF81                   BRA         L966
    0000016A 0009                   NOP
      15062020.c    91            }
      15062020.c    92       }
      15062020.c    93    }




SH SERIES C/C++ Compiler (Ver. 6.0C)                                                                 14-Jun-2020 13:18:49  PAGE    6


SCT OFFSET   CODE       C LABEL     INSTRUCTION OPERAND    COMMENT

      15062020.c    94    
      15062020.c    95    // DRM System
      15062020.c    96    int drm() {
    0000016C              _drm:                            ; function: drm
                                                           ; frame size=64
    0000016C 2FE6                   MOV.L       R14,@-R15
      15062020.c    97        unsigned int key;
      15062020.c    98        int selectedNumber = 0;
      15062020.c    99        int corsur = 7;
      15062020.c   100        int eingaben[4];
      15062020.c   101        locate(10,2);
    0000016E E502                   MOV         #2,R5
    00000170 2FD6                   MOV.L       R13,@-R15
    00000172 EE00                   MOV         #0,R14
    00000174 2FC6                   MOV.L       R12,@-R15
    00000176 2FB6                   MOV.L       R11,@-R15
    00000178 2FA6                   MOV.L       R10,@-R15
    0000017A 2F96                   MOV.L       R9,@-R15
    0000017C 2F86                   MOV.L       R8,@-R15
    0000017E E807                   MOV         #7,R8
    00000180 DC67                   MOV.L       L1127,R12  ; _locate
    00000182 6D83                   MOV         R8,R13
    00000184 4F22                   STS.L       PR,@-R15
    00000186 7FE0                   ADD         #-32,R15
    00000188 4C0B                   JSR         @R12
    0000018A E40A                   MOV         #10,R4
      15062020.c   102        Print((unsigned char*)"DRM");
    0000018C DB65                   MOV.L       L1127+4,R11; _Print
    0000018E D466                   MOV.L       L1127+8,R4 ; L386
    00000190 4B0B                   JSR         @R11
    00000192 0009                   NOP
      15062020.c   103        locate(5,3);
    00000194 E503                   MOV         #3,R5
    00000196 4C0B                   JSR         @R12
    00000198 E405                   MOV         #5,R4
      15062020.c   104        Print((unsigned char*)"Code eingeben");
    0000019A D464                   MOV.L       L1127+12,R4; L387
    0000019C 4B0B                   JSR         @R11
    0000019E 0009                   NOP
      15062020.c   105        locate(6,5);
    000001A0 E505                   MOV         #5,R5
    000001A2 4C0B                   JSR         @R12
    000001A4 E406                   MOV         #6,R4
      15062020.c   106        Print((unsigned char*)"[ ] [ ] [ ]");
    000001A6 D462                   MOV.L       L1127+16,R4; L388
    000001A8 4B0B                   JSR         @R11
    000001AA 0009                   NOP
    000001AC 6AF3                   MOV         R15,R10
    000001AE 7A10                   ADD         #16,R10
    000001B0 63A3                   MOV         R10,R3
    000001B2 6233                   MOV         R3,R2
    000001B4 1F33                   MOV.L       R3,@(12,R15)
    000001B6 E901                   MOV         #1,R9
    000001B8 7204                   ADD         #4,R2
    000001BA 6133                   MOV         R3,R1
    000001BC 1F21                   MOV.L       R2,@(4,R15)
    000001BE 7108                   ADD         #8,R1




SH SERIES C/C++ Compiler (Ver. 6.0C)                                                                 14-Jun-2020 13:18:49  PAGE    7


SCT OFFSET   CODE       C LABEL     INSTRUCTION OPERAND    COMMENT

    000001C0 1F12                   MOV.L       R1,@(8,R15)
      15062020.c   107        while (1)
    000001C2              L979:                             
      15062020.c   108        {
      15062020.c   109            GetKey(&key);
    000001C2 D25C                   MOV.L       L1127+20,R2; _GetKey
    000001C4 420B                   JSR         @R2
    000001C6 64F3                   MOV         R15,R4
      15062020.c   110            if (KEY_CHAR_0 == key){
    000001C8 60F2                   MOV.L       @R15,R0
    000001CA 8830                   CMP/EQ      #48,R0
    000001CC 8B0B                   BF          L980
      15062020.c   111                eingaben[selectedNumber] = 0;
    000001CE 60E3                   MOV         R14,R0
    000001D0 4008                   SHLL2       R0
    000001D2 E300                   MOV         #0,R3
    000001D4 0A36                   MOV.L       R3,@(R0,R10)
      15062020.c   112                locate(corsur, 5);
    000001D6 E505                   MOV         #5,R5
    000001D8 4C0B                   JSR         @R12
    000001DA 64D3                   MOV         R13,R4
      15062020.c   113                Print((unsigned char*)"0");
    000001DC D456                   MOV.L       L1127+24,R4; L391
    000001DE 4B0B                   JSR         @R11
    000001E0 0009                   NOP
      15062020.c   114                selectedNumber = selectedNumber + 1;
    000001E2 7E01                   ADD         #1,R14
      15062020.c   115                corsur = corsur + 4;
    000001E4 7D04                   ADD         #4,R13
    000001E6              L980:                             
      15062020.c   116            }
      15062020.c   117            if (KEY_CHAR_1 == key){
    000001E6 60F2                   MOV.L       @R15,R0
    000001E8 8831                   CMP/EQ      #49,R0
    000001EA 8B0A                   BF          L981
      15062020.c   118                eingaben[selectedNumber] = 1;
    000001EC 60E3                   MOV         R14,R0
    000001EE 4008                   SHLL2       R0
    000001F0 0A96                   MOV.L       R9,@(R0,R10)
      15062020.c   119                locate(corsur, 5);
    000001F2 E505                   MOV         #5,R5
    000001F4 4C0B                   JSR         @R12
    000001F6 64D3                   MOV         R13,R4
      15062020.c   120                Print((unsigned char*)"1");
    000001F8 D450                   MOV.L       L1127+28,R4; L393
    000001FA 4B0B                   JSR         @R11
    000001FC 0009                   NOP
      15062020.c   121                selectedNumber = selectedNumber + 1;
    000001FE 7E01                   ADD         #1,R14
      15062020.c   122                corsur = corsur + 4;
    00000200 7D04                   ADD         #4,R13
    00000202              L981:                             
      15062020.c   123            }
      15062020.c   124            if (KEY_CHAR_2 == key){
    00000202 60F2                   MOV.L       @R15,R0
    00000204 8832                   CMP/EQ      #50,R0
    00000206 8B0B                   BF          L982




SH SERIES C/C++ Compiler (Ver. 6.0C)                                                                 14-Jun-2020 13:18:49  PAGE    8


SCT OFFSET   CODE       C LABEL     INSTRUCTION OPERAND    COMMENT

      15062020.c   125                eingaben[selectedNumber] = 2;
    00000208 60E3                   MOV         R14,R0
    0000020A 4008                   SHLL2       R0
    0000020C E302                   MOV         #2,R3
      15062020.c   126                locate(corsur, 5);
    0000020E E505                   MOV         #5,R5
    00000210 0A36                   MOV.L       R3,@(R0,R10)
    00000212 4C0B                   JSR         @R12
    00000214 64D3                   MOV         R13,R4
      15062020.c   127                Print((unsigned char*)"2");
    00000216 D44A                   MOV.L       L1127+32,R4; L395
    00000218 4B0B                   JSR         @R11
    0000021A 0009                   NOP
      15062020.c   128                selectedNumber = selectedNumber + 1;
    0000021C 7E01                   ADD         #1,R14
      15062020.c   129                corsur = corsur + 4;
    0000021E 7D04                   ADD         #4,R13
    00000220              L982:                             
      15062020.c   130            }
      15062020.c   131            if (KEY_CHAR_3 == key){
    00000220 60F2                   MOV.L       @R15,R0
    00000222 8833                   CMP/EQ      #51,R0
    00000224 8B0B                   BF          L983
      15062020.c   132                eingaben[selectedNumber] = 3;
    00000226 60E3                   MOV         R14,R0
    00000228 4008                   SHLL2       R0
    0000022A E303                   MOV         #3,R3
    0000022C 0A36                   MOV.L       R3,@(R0,R10)
      15062020.c   133                locate(corsur, 5);
    0000022E E505                   MOV         #5,R5
    00000230 4C0B                   JSR         @R12
    00000232 64D3                   MOV         R13,R4
      15062020.c   134                Print((unsigned char*)"3");
    00000234 D443                   MOV.L       L1127+36,R4; L397
    00000236 4B0B                   JSR         @R11
    00000238 0009                   NOP
      15062020.c   135                selectedNumber = selectedNumber + 1;
    0000023A 7E01                   ADD         #1,R14
      15062020.c   136                corsur = corsur + 4;
    0000023C 7D04                   ADD         #4,R13
    0000023E              L983:                             
      15062020.c   137            }
      15062020.c   138            if (KEY_CHAR_4 == key){
    0000023E 60F2                   MOV.L       @R15,R0
    00000240 8834                   CMP/EQ      #52,R0
    00000242 8B0B                   BF          L984
      15062020.c   139                eingaben[selectedNumber] = 4;
    00000244 60E3                   MOV         R14,R0
    00000246 4008                   SHLL2       R0
    00000248 E304                   MOV         #4,R3
      15062020.c   140                locate(corsur, 5);
    0000024A E505                   MOV         #5,R5
    0000024C 0A36                   MOV.L       R3,@(R0,R10)
    0000024E 4C0B                   JSR         @R12
    00000250 64D3                   MOV         R13,R4
      15062020.c   141                Print((unsigned char*)"4");
    00000252 D43D                   MOV.L       L1127+40,R4; L399




SH SERIES C/C++ Compiler (Ver. 6.0C)                                                                 14-Jun-2020 13:18:49  PAGE    9


SCT OFFSET   CODE       C LABEL     INSTRUCTION OPERAND    COMMENT

    00000254 4B0B                   JSR         @R11
    00000256 0009                   NOP
      15062020.c   142                selectedNumber = selectedNumber + 1;
    00000258 7E01                   ADD         #1,R14
      15062020.c   143                corsur = corsur + 4;
    0000025A 7D04                   ADD         #4,R13
    0000025C              L984:                             
      15062020.c   144            }
      15062020.c   145            if (KEY_CHAR_5 == key){
    0000025C 60F2                   MOV.L       @R15,R0
    0000025E 8835                   CMP/EQ      #53,R0
    00000260 8B0B                   BF          L985
      15062020.c   146                eingaben[selectedNumber] = 5;
    00000262 60E3                   MOV         R14,R0
    00000264 4008                   SHLL2       R0
    00000266 E305                   MOV         #5,R3
    00000268 0A36                   MOV.L       R3,@(R0,R10)
      15062020.c   147                locate(corsur, 5);
    0000026A 6533                   MOV         R3,R5
    0000026C 4C0B                   JSR         @R12
    0000026E 64D3                   MOV         R13,R4
      15062020.c   148                Print((unsigned char*)"5");
    00000270 D436                   MOV.L       L1127+44,R4; L401
    00000272 4B0B                   JSR         @R11
    00000274 0009                   NOP
      15062020.c   149                selectedNumber = selectedNumber + 1;
    00000276 7E01                   ADD         #1,R14
      15062020.c   150                corsur = corsur + 4;
    00000278 7D04                   ADD         #4,R13
    0000027A              L985:                             
      15062020.c   151            }
      15062020.c   152            if (KEY_CHAR_6 == key){
    0000027A 60F2                   MOV.L       @R15,R0
    0000027C 8836                   CMP/EQ      #54,R0
    0000027E 8B0B                   BF          L986
      15062020.c   153                eingaben[selectedNumber] = 6;
    00000280 60E3                   MOV         R14,R0
    00000282 4008                   SHLL2       R0
    00000284 E306                   MOV         #6,R3
      15062020.c   154                locate(corsur, 5);
    00000286 E505                   MOV         #5,R5
    00000288 0A36                   MOV.L       R3,@(R0,R10)
    0000028A 4C0B                   JSR         @R12
    0000028C 64D3                   MOV         R13,R4
      15062020.c   155                Print((unsigned char*)"6");
    0000028E D430                   MOV.L       L1127+48,R4; L403
    00000290 4B0B                   JSR         @R11
    00000292 0009                   NOP
      15062020.c   156                selectedNumber = selectedNumber + 1;
    00000294 7E01                   ADD         #1,R14
      15062020.c   157                corsur = corsur + 4;
    00000296 7D04                   ADD         #4,R13
    00000298              L986:                             
      15062020.c   158            }
      15062020.c   159            if (KEY_CHAR_7 == key){
    00000298 60F2                   MOV.L       @R15,R0
    0000029A 8837                   CMP/EQ      #55,R0




SH SERIES C/C++ Compiler (Ver. 6.0C)                                                                 14-Jun-2020 13:18:49  PAGE   10


SCT OFFSET   CODE       C LABEL     INSTRUCTION OPERAND    COMMENT

    0000029C 8B0A                   BF          L987
      15062020.c   160                eingaben[selectedNumber] = 7;
    0000029E 60E3                   MOV         R14,R0
    000002A0 4008                   SHLL2       R0
      15062020.c   161                locate(corsur, 5);
    000002A2 E505                   MOV         #5,R5
    000002A4 0A86                   MOV.L       R8,@(R0,R10)
    000002A6 4C0B                   JSR         @R12
    000002A8 64D3                   MOV         R13,R4
      15062020.c   162                Print((unsigned char*)"7");
    000002AA D42A                   MOV.L       L1127+52,R4; L405
    000002AC 4B0B                   JSR         @R11
    000002AE 0009                   NOP
      15062020.c   163                selectedNumber = selectedNumber + 1;
    000002B0 7E01                   ADD         #1,R14
      15062020.c   164                corsur = corsur + 4;
    000002B2 7D04                   ADD         #4,R13
    000002B4              L987:                             
      15062020.c   165            }
      15062020.c   166            if (KEY_CHAR_8 == key){
    000002B4 60F2                   MOV.L       @R15,R0
    000002B6 8838                   CMP/EQ      #56,R0
    000002B8 8B0B                   BF          L988
      15062020.c   167                eingaben[selectedNumber] = 8;
    000002BA 60E3                   MOV         R14,R0
    000002BC 4008                   SHLL2       R0
    000002BE E308                   MOV         #8,R3
    000002C0 0A36                   MOV.L       R3,@(R0,R10)
      15062020.c   168                locate(corsur, 5);
    000002C2 E505                   MOV         #5,R5
    000002C4 4C0B                   JSR         @R12
    000002C6 64D3                   MOV         R13,R4
      15062020.c   169                Print((unsigned char*)"8");
    000002C8 D423                   MOV.L       L1127+56,R4; L407
    000002CA 4B0B                   JSR         @R11
    000002CC 0009                   NOP
      15062020.c   170                selectedNumber = selectedNumber + 1;
    000002CE 7E01                   ADD         #1,R14
      15062020.c   171                corsur = corsur + 4;
    000002D0 7D04                   ADD         #4,R13
    000002D2              L988:                             
      15062020.c   172            }
      15062020.c   173            if (KEY_CHAR_9 == key){
    000002D2 60F2                   MOV.L       @R15,R0
    000002D4 8839                   CMP/EQ      #57,R0
    000002D6 8B0B                   BF          L989
      15062020.c   174                eingaben[selectedNumber] = 9;
    000002D8 60E3                   MOV         R14,R0
    000002DA 4008                   SHLL2       R0
    000002DC E309                   MOV         #9,R3
      15062020.c   175                locate(corsur, 5);
    000002DE E505                   MOV         #5,R5
    000002E0 0A36                   MOV.L       R3,@(R0,R10)
    000002E2 4C0B                   JSR         @R12
    000002E4 64D3                   MOV         R13,R4
      15062020.c   176                Print((unsigned char*)"9");
    000002E6 D41D                   MOV.L       L1127+60,R4; L409




SH SERIES C/C++ Compiler (Ver. 6.0C)                                                                 14-Jun-2020 13:18:49  PAGE   11


SCT OFFSET   CODE       C LABEL     INSTRUCTION OPERAND    COMMENT

    000002E8 4B0B                   JSR         @R11
    000002EA 0009                   NOP
      15062020.c   177                selectedNumber = selectedNumber + 1;
    000002EC 7E01                   ADD         #1,R14
      15062020.c   178                corsur = corsur + 4;
    000002EE 7D04                   ADD         #4,R13
    000002F0              L989:                             
      15062020.c   179            }
      15062020.c   180            if (selectedNumber == 3){
    000002F0 60E3                   MOV         R14,R0
    000002F2 8803                   CMP/EQ      #3,R0
    000002F4 8901                   BT          L1128
    000002F6 AF64                   BRA         L979
    000002F8 0009                   NOP
    000002FA              L1128:                            
      15062020.c   181                if (eingaben[0] == 6) {
    000002FA 50F3                   MOV.L       @(12,R15),R0
    000002FC 6002                   MOV.L       @R0,R0
    000002FE 8806                   CMP/EQ      #6,R0
    00000300 8B09                   BF          L991
      15062020.c   182                    if (eingaben[1] == 8) {
    00000302 50F1                   MOV.L       @(4,R15),R0
    00000304 6002                   MOV.L       @R0,R0
    00000306 8808                   CMP/EQ      #8,R0
    00000308 8B05                   BF          L991
      15062020.c   183                        if (eingaben[2] == 4) {
    0000030A 50F2                   MOV.L       @(8,R15),R0
    0000030C 6002                   MOV.L       @R0,R0
    0000030E 8804                   CMP/EQ      #4,R0
    00000310 8B01                   BF          L991
      15062020.c   184                            drmCheck = 1;
    00000312 D213                   MOV.L       L1127+64,R2; _drmCheck
    00000314 2292                   MOV.L       R9,@R2
    00000316              L991:                             
      15062020.c   185                        }
      15062020.c   186                    }
      15062020.c   187                }
      15062020.c   188                Bdisp_AllClr_DDVRAM();
    00000316 D313                   MOV.L       L1127+68,R3; _Bdisp_AllClr_DDVRAM
    00000318 430B                   JSR         @R3
    0000031A 0009                   NOP
      15062020.c   189                Sleep(300);
    0000031C A024                   BRA         L1123
    0000031E 0009                   NOP
    00000320              L1127:                            
    00000320 <00000000>             .DATA.L     _locate
    00000324 <00000000>             .DATA.L     _Print
    00000328 <00000000>             .DATA.L     L386
    0000032C <00000000>             .DATA.L     L387
    00000330 <00000000>             .DATA.L     L388
    00000334 <00000000>             .DATA.L     _GetKey
    00000338 <00000000>             .DATA.L     L391
    0000033C <00000000>             .DATA.L     L393
    00000340 <00000000>             .DATA.L     L395
    00000344 <00000000>             .DATA.L     L397
    00000348 <00000000>             .DATA.L     L399
    0000034C <00000000>             .DATA.L     L401




SH SERIES C/C++ Compiler (Ver. 6.0C)                                                                 14-Jun-2020 13:18:49  PAGE   12


SCT OFFSET   CODE       C LABEL     INSTRUCTION OPERAND    COMMENT

    00000350 <00000000>             .DATA.L     L403
    00000354 <00000000>             .DATA.L     L405
    00000358 <00000000>             .DATA.L     L407
    0000035C <00000000>             .DATA.L     L409
    00000360 <00000000>             .DATA.L     _drmCheck
    00000364 <00000000>             .DATA.L     _Bdisp_AllClr_DDVRAM
    00000368              L1123:                            
    00000368 940D                   MOV.W       L1129,R4   ; H'012C
    0000036A D207                   MOV.L       L1129+2,R2 ; _Sleep
    0000036C 420B                   JSR         @R2
    0000036E 0009                   NOP
      15062020.c   190                return(0);
    00000370 E000                   MOV         #0,R0
      15062020.c   191            }
      15062020.c   192        }
      15062020.c   193    }
    00000372 7F20                   ADD         #32,R15
    00000374 4F26                   LDS.L       @R15+,PR
    00000376 68F6                   MOV.L       @R15+,R8
    00000378 69F6                   MOV.L       @R15+,R9
    0000037A 6AF6                   MOV.L       @R15+,R10
    0000037C 6BF6                   MOV.L       @R15+,R11
    0000037E 6CF6                   MOV.L       @R15+,R12
    00000380 6DF6                   MOV.L       @R15+,R13
    00000382 000B                   RTS
    00000384 6EF6                   MOV.L       @R15+,R14
    00000386              L1129:                            
    00000386 012C                   .DATA.W     H'012C
    00000388 <00000000>             .DATA.L     _Sleep
      15062020.c   194    
      15062020.c   195    
      15062020.c   196    // Lernfeld 1
      15062020.c   197    int lf1menu() {
    0000038C              _lf1menu:                        ; function: lf1menu
                                                           ; frame size=28
                                                           ; used runtime library name:
                                                           ; __quick_odd_mvn
      15062020.c   198        unsigned int i;
      15062020.c   199        unsigned int auswahl = 3;
      15062020.c   200        unsigned int menuItemsX = 2;
      15062020.c   201        unsigned int menuItemsY = 3;
      15062020.c   202        unsigned int menuItemsNbr = 5;
      15062020.c   203        unsigned char * menuItems[] = {
      15062020.c   204            "Okonomisches Prinzip",
      15062020.c   205            "Rechtsformen",
      15062020.c   206            "Gewinnverteilung",
      15062020.c   207            "Haftung, Infos",
      15062020.c   208            "Preisbildungsprozes"
      15062020.c   209        };
    0000038C D241                   MOV.L       L1130+8,R2 ; L421
    0000038E 7FE4                   ADD         #-28,R15
    00000390 EE03                   MOV         #3,R14
    00000392 E305                   MOV         #5,R3
    00000394 1F31                   MOV.L       R3,@(4,R15)
    00000396 61F3                   MOV         R15,R1
    00000398 D33F                   MOV.L       L1130+12,R3; __quick_odd_mvn
    0000039A 7108                   ADD         #8,R1




SH SERIES C/C++ Compiler (Ver. 6.0C)                                                                 14-Jun-2020 13:18:49  PAGE   13


SCT OFFSET   CODE       C LABEL     INSTRUCTION OPERAND    COMMENT

    0000039C 430B                   JSR         @R3
    0000039E E014                   MOV         #20,R0
      15062020.c   210        Bdisp_AllClr_DDVRAM();
    000003A0 DB3E                   MOV.L       L1130+16,R11; _Bdisp_AllClr_DDVRAM
    000003A2 4B0B                   JSR         @R11
    000003A4 0009                   NOP
      15062020.c   211        // TITLE 
      15062020.c   212        locate(1,1);
    000003A6 E501                   MOV         #1,R5
    000003A8 DC3D                   MOV.L       L1130+20,R12; _locate
    000003AA 4C0B                   JSR         @R12
    000003AC 6453                   MOV         R5,R4
      15062020.c   213        Print((unsigned char*)"Lernfeld 1");  
    000003AE DD3D                   MOV.L       L1130+24,R13; _Print
    000003B0 D43D                   MOV.L       L1130+28,R4; L353
    000003B2 4D0B                   JSR         @R13
    000003B4 0009                   NOP
      15062020.c   214        // Menu Items
      15062020.c   215        for(i=0; i < menuItemsNbr; i=i+1){
    000003B6 EA00                   MOV         #0,R10
    000003B8 69F3                   MOV         R15,R9
    000003BA 7908                   ADD         #8,R9
    000003BC E803                   MOV         #3,R8
    000003BE              L996:                             
      15062020.c   216            locate(menuItemsX, menuItemsY+i);
    000003BE 6583                   MOV         R8,R5
    000003C0 4C0B                   JSR         @R12
    000003C2 E402                   MOV         #2,R4
      15062020.c   217            Print(menuItems[i]);
    000003C4 4D0B                   JSR         @R13
    000003C6 6496                   MOV.L       @R9+,R4
    000003C8 52F1                   MOV.L       @(4,R15),R2
    000003CA 7A01                   ADD         #1,R10
    000003CC 3A22                   CMP/HS      R2,R10
    000003CE 8FF6                   BF/S        L996
    000003D0 7801                   ADD         #1,R8
    000003D2 985B                   MOV.W       L1130,R8   ; H'7547
    000003D4 DA35                   MOV.L       L1130+32,R10; L366
    000003D6 6983                   MOV         R8,R9
    000003D8 79FB                   ADD         #-5,R9
      15062020.c   218        };
      15062020.c   219       
      15062020.c   220        // Cursor    
      15062020.c   221        while (1){
    000003DA              L998:                             
      15062020.c   222            unsigned int key;
      15062020.c   223            locate(1,auswahl);
    000003DA 65E3                   MOV         R14,R5
    000003DC 4C0B                   JSR         @R12
    000003DE E401                   MOV         #1,R4
      15062020.c   224            Print((unsigned char*)">");       
    000003E0 D433                   MOV.L       L1130+36,R4; L363
    000003E2 4D0B                   JSR         @R13
    000003E4 0009                   NOP
      15062020.c   225            GetKey(&key);
    000003E6 D333                   MOV.L       L1130+40,R3; _GetKey
    000003E8 430B                   JSR         @R3




SH SERIES C/C++ Compiler (Ver. 6.0C)                                                                 14-Jun-2020 13:18:49  PAGE   14


SCT OFFSET   CODE       C LABEL     INSTRUCTION OPERAND    COMMENT

    000003EA 64F3                   MOV         R15,R4
      15062020.c   226            if(KEY_CTRL_UP == key) {
    000003EC 62F2                   MOV.L       @R15,R2
    000003EE 3290                   CMP/EQ      R9,R2
    000003F0 8B0E                   BF          L999
      15062020.c   227                if (auswahl == 3) {
    000003F2 60E3                   MOV         R14,R0
    000003F4 8803                   CMP/EQ      #3,R0
    000003F6 8B05                   BF          L1000
      15062020.c   228                    locate(1,auswahl);
    000003F8 65E3                   MOV         R14,R5
    000003FA 4C0B                   JSR         @R12
    000003FC E401                   MOV         #1,R4
      15062020.c   229                    Print((unsigned char*)" ");
    000003FE 4D0B                   JSR         @R13
    00000400 64A3                   MOV         R10,R4
      15062020.c   230                    auswahl = auswahl + 5;
    00000402 7E05                   ADD         #5,R14
    00000404              L1000:                            
      15062020.c   231                }
      15062020.c   232                locate(1,auswahl);
    00000404 65E3                   MOV         R14,R5
    00000406 4C0B                   JSR         @R12
    00000408 E401                   MOV         #1,R4
      15062020.c   233                Print((unsigned char*)" ");
    0000040A 4D0B                   JSR         @R13
    0000040C 64A3                   MOV         R10,R4
      15062020.c   234                auswahl = auswahl - 1;
    0000040E 7EFF                   ADD         #-1,R14
    00000410              L999:                             
      15062020.c   235            };
      15062020.c   236            if(KEY_CTRL_DOWN == key) {
    00000410 63F2                   MOV.L       @R15,R3
    00000412 3380                   CMP/EQ      R8,R3
    00000414 8B0E                   BF          L1001
      15062020.c   237                if (auswahl == 7) {
    00000416 60E3                   MOV         R14,R0
    00000418 8807                   CMP/EQ      #7,R0
    0000041A 8B05                   BF          L1002
      15062020.c   238                    locate(1,auswahl);
    0000041C 65E3                   MOV         R14,R5
    0000041E 4C0B                   JSR         @R12
    00000420 E401                   MOV         #1,R4
      15062020.c   239                    Print((unsigned char*)" ");
    00000422 4D0B                   JSR         @R13
    00000424 64A3                   MOV         R10,R4
      15062020.c   240                    auswahl = auswahl - 5;
    00000426 7EFB                   ADD         #-5,R14
    00000428              L1002:                            
      15062020.c   241                }
      15062020.c   242                locate(1,auswahl);
    00000428 65E3                   MOV         R14,R5
    0000042A 4C0B                   JSR         @R12
    0000042C E401                   MOV         #1,R4
      15062020.c   243                Print((unsigned char*)" ");
    0000042E 4D0B                   JSR         @R13
    00000430 64A3                   MOV         R10,R4




SH SERIES C/C++ Compiler (Ver. 6.0C)                                                                 14-Jun-2020 13:18:49  PAGE   15


SCT OFFSET   CODE       C LABEL     INSTRUCTION OPERAND    COMMENT

      15062020.c   244                auswahl = auswahl + 1;
    00000432 7E01                   ADD         #1,R14
    00000434              L1001:                            
      15062020.c   245            };
      15062020.c   246            if (KEY_CTRL_EXE == key) {
    00000434 922B                   MOV.W       L1130+2,R2 ; H'7534
    00000436 63F2                   MOV.L       @R15,R3
    00000438 3320                   CMP/EQ      R2,R3
    0000043A 8B22                   BF          L1003
      15062020.c   247                if (auswahl == 3) {
    0000043C 60E3                   MOV         R14,R0
    0000043E 8803                   CMP/EQ      #3,R0
    00000440 8B03                   BF          L1004
      15062020.c   248                    Bdisp_AllClr_DDVRAM();
    00000442 4B0B                   JSR         @R11
    00000444 0009                   NOP
      15062020.c   249                    lf1menuitem1();
    00000446 B03E                   BSR         _lf1menuitem1
    00000448 0009                   NOP
    0000044A              L1004:                            
      15062020.c   250                }
      15062020.c   251                if (auswahl == 4) {
    0000044A 60E3                   MOV         R14,R0
    0000044C 8804                   CMP/EQ      #4,R0
    0000044E 8B03                   BF          L1005
      15062020.c   252                    Bdisp_AllClr_DDVRAM();
    00000450 4B0B                   JSR         @R11
    00000452 0009                   NOP
      15062020.c   253                    lf1menuitem2();
    00000454 B072                   BSR         _lf1menuitem2
    00000456 0009                   NOP
    00000458              L1005:                            
      15062020.c   254                }
      15062020.c   255                if (auswahl == 5) {
    00000458 60E3                   MOV         R14,R0
    0000045A 8805                   CMP/EQ      #5,R0
    0000045C 8B03                   BF          L1006
      15062020.c   256                    Bdisp_AllClr_DDVRAM();
    0000045E 4B0B                   JSR         @R11
    00000460 0009                   NOP
      15062020.c   257                    lf1menuitem3();
    00000462 B11D                   BSR         _lf1menuitem3
    00000464 0009                   NOP
    00000466              L1006:                            
      15062020.c   258                }
      15062020.c   259                if (auswahl == 6) {
    00000466 60E3                   MOV         R14,R0
    00000468 8806                   CMP/EQ      #6,R0
    0000046A 8B03                   BF          L1007
      15062020.c   260                    Bdisp_AllClr_DDVRAM();
    0000046C 4B0B                   JSR         @R11
    0000046E 0009                   NOP
      15062020.c   261                    lf1menuitem4();
    00000470 B17E                   BSR         _lf1menuitem4
    00000472 0009                   NOP
    00000474              L1007:                            
      15062020.c   262                }




SH SERIES C/C++ Compiler (Ver. 6.0C)                                                                 14-Jun-2020 13:18:49  PAGE   16


SCT OFFSET   CODE       C LABEL     INSTRUCTION OPERAND    COMMENT

      15062020.c   263                if (auswahl == 7) {
    00000474 60E3                   MOV         R14,R0
    00000476 8807                   CMP/EQ      #7,R0
    00000478 8B03                   BF          L1003
      15062020.c   264                    Bdisp_AllClr_DDVRAM();
    0000047A 4B0B                   JSR         @R11
    0000047C 0009                   NOP
      15062020.c   265                    lf1menuitem5();
    0000047E B353                   BSR         _lf1menuitem5
    00000480 0009                   NOP
    00000482              L1003:                            
      15062020.c   266                }
      15062020.c   267            };
      15062020.c   268            if (KEY_CTRL_EXIT == key) {
    00000482 9305                   MOV.W       L1130+4,R3 ; H'7532
    00000484 62F2                   MOV.L       @R15,R2
    00000486 3230                   CMP/EQ      R3,R2
    00000488 A016                   BRA         L1124
    0000048A 0009                   NOP
    0000048C              L1130:                            
    0000048C 7547                   .DATA.W     H'7547
    0000048E 7534                   .DATA.W     H'7534
    00000490 7532                   .DATA.W     H'7532
    00000492 0000                   .DATA.W     0
    00000494 <00000000>             .DATA.L     L421
    00000498 <00000000>             .DATA.L     __quick_odd_mvn
    0000049C <00000000>             .DATA.L     _Bdisp_AllClr_DDVRAM
    000004A0 <00000000>             .DATA.L     _locate
    000004A4 <00000000>             .DATA.L     _Print
    000004A8 <00000000>             .DATA.L     L353
    000004AC <00000000>             .DATA.L     L366
    000004B0 <00000000>             .DATA.L     L363
    000004B4 <00000000>             .DATA.L     _GetKey
    000004B8              L1124:                            
    000004B8 8B8F                   BF          L998
      15062020.c   269                Bdisp_AllClr_DDVRAM();
    000004BA 4B0B                   JSR         @R11
    000004BC 0009                   NOP
      15062020.c   270                firstMenu();
    000004BE BDB3                   BSR         _firstMenu
    000004C0 0009                   NOP
    000004C2 AF8A                   BRA         L998
    000004C4 0009                   NOP
      15062020.c   271            }
      15062020.c   272       }
      15062020.c   273    }
      15062020.c   274    int lf1menuitem1(){   
    000004C6              _lf1menuitem1:                   ; function: lf1menuitem1
                                                           ; frame size=4
    000004C6 7FFC                   ADD         #-4,R15
      15062020.c   275        locate(1,1);
    000004C8 DE41                   MOV.L       L1131+2,R14; _locate
    000004CA E501                   MOV         #1,R5
    000004CC 4E0B                   JSR         @R14
    000004CE 6453                   MOV         R5,R4
      15062020.c   276        Print((unsigned char*)"Okonomisches Prinzip");
    000004D0 DD40                   MOV.L       L1131+6,R13; _Print




SH SERIES C/C++ Compiler (Ver. 6.0C)                                                                 14-Jun-2020 13:18:49  PAGE   17


SCT OFFSET   CODE       C LABEL     INSTRUCTION OPERAND    COMMENT

    000004D2 D441                   MOV.L       L1131+10,R4; L422
    000004D4 4D0B                   JSR         @R13
    000004D6 0009                   NOP
      15062020.c   277        locate(1,2);
    000004D8 E502                   MOV         #2,R5
    000004DA 4E0B                   JSR         @R14
    000004DC E401                   MOV         #1,R4
      15062020.c   278        Print((unsigned char*)"-Minimal Prinzip");
    000004DE D43F                   MOV.L       L1131+14,R4; L447
    000004E0 4D0B                   JSR         @R13
    000004E2 0009                   NOP
      15062020.c   279        locate(2,3);
    000004E4 E503                   MOV         #3,R5
    000004E6 4E0B                   JSR         @R14
    000004E8 E402                   MOV         #2,R4
      15062020.c   280        Print((unsigned char*)"Vorgegebenes Ziel");
    000004EA D43D                   MOV.L       L1131+18,R4; L448
    000004EC 4D0B                   JSR         @R13
    000004EE 0009                   NOP
      15062020.c   281        locate(2,4);
    000004F0 E504                   MOV         #4,R5
    000004F2 4E0B                   JSR         @R14
    000004F4 E402                   MOV         #2,R4
      15062020.c   282        Print((unsigned char*)"wenig Ausgaben");
    000004F6 D43B                   MOV.L       L1131+22,R4; L449
    000004F8 4D0B                   JSR         @R13
    000004FA 0009                   NOP
      15062020.c   283        locate(1,5);
    000004FC E505                   MOV         #5,R5
    000004FE 4E0B                   JSR         @R14
    00000500 E401                   MOV         #1,R4
      15062020.c   284        Print((unsigned char*)"-Maximal Prinzip");
    00000502 D439                   MOV.L       L1131+26,R4; L450
    00000504 4D0B                   JSR         @R13
    00000506 0009                   NOP
      15062020.c   285        locate(2,6);
    00000508 E506                   MOV         #6,R5
    0000050A 4E0B                   JSR         @R14
    0000050C E402                   MOV         #2,R4
      15062020.c   286        Print((unsigned char*)"Einsatz vorgegeben");
    0000050E D437                   MOV.L       L1131+30,R4; L451
    00000510 4D0B                   JSR         @R13
    00000512 0009                   NOP
      15062020.c   287        locate(2,7);
    00000514 E507                   MOV         #7,R5
    00000516 4E0B                   JSR         @R14
    00000518 E402                   MOV         #2,R4
      15062020.c   288        Print((unsigned char*)"viel Ziel erreichen");
    0000051A D435                   MOV.L       L1131+34,R4; L452
    0000051C 4D0B                   JSR         @R13
    0000051E 0009                   NOP
    00000520 DC34                   MOV.L       L1131+38,R12; _Bdisp_AllClr_DDVRAM
    00000522 DD35                   MOV.L       L1131+42,R13; _GetKey
    00000524 9E53                   MOV.W       L1131,R14  ; H'7532
      15062020.c   289        while (1){
    00000526              L1011:                            
      15062020.c   290            unsigned int key;       




SH SERIES C/C++ Compiler (Ver. 6.0C)                                                                 14-Jun-2020 13:18:49  PAGE   18


SCT OFFSET   CODE       C LABEL     INSTRUCTION OPERAND    COMMENT

      15062020.c   291            GetKey(&key);
    00000526 4D0B                   JSR         @R13
    00000528 64F3                   MOV         R15,R4
      15062020.c   292            if(KEY_CTRL_EXIT == key) {
    0000052A 62F2                   MOV.L       @R15,R2
    0000052C 32E0                   CMP/EQ      R14,R2
    0000052E 8BFA                   BF          L1011
      15062020.c   293                Bdisp_AllClr_DDVRAM();
    00000530 4C0B                   JSR         @R12
    00000532 0009                   NOP
      15062020.c   294                lf1menu();
    00000534 BF2A                   BSR         _lf1menu
    00000536 0009                   NOP
    00000538 AFF5                   BRA         L1011
    0000053A 0009                   NOP
      15062020.c   295            }
      15062020.c   296        } 
      15062020.c   297    }
      15062020.c   298    int lf1menuitem2(){
    0000053C              _lf1menuitem2:                   ; function: lf1menuitem2
                                                           ; frame size=8
      15062020.c   299        locate(1,1);
    0000053C DE24                   MOV.L       L1131+2,R14; _locate
    0000053E E501                   MOV         #1,R5
    00000540 7FF8                   ADD         #-8,R15
    00000542 4E0B                   JSR         @R14
    00000544 6453                   MOV         R5,R4
      15062020.c   300        Print((unsigned char*)"Rechtsformen 1/2");
    00000546 DD23                   MOV.L       L1131+6,R13; _Print
    00000548 D42C                   MOV.L       L1131+46,R4; L457
    0000054A 4D0B                   JSR         @R13
    0000054C 0009                   NOP
      15062020.c   301        locate(1,2);
    0000054E E502                   MOV         #2,R5
    00000550 4E0B                   JSR         @R14
    00000552 E401                   MOV         #1,R4
      15062020.c   302        Print((unsigned char*)"Personengesellschaft");
    00000554 D42A                   MOV.L       L1131+50,R4; L458
    00000556 4D0B                   JSR         @R13
    00000558 0009                   NOP
      15062020.c   303        locate(1,3);
    0000055A E503                   MOV         #3,R5
    0000055C 4E0B                   JSR         @R14
    0000055E E401                   MOV         #1,R4
      15062020.c   304        Print((unsigned char*)"-e.K. eingetragener");
    00000560 D428                   MOV.L       L1131+54,R4; L459
    00000562 4D0B                   JSR         @R13
    00000564 0009                   NOP
      15062020.c   305        locate(3,4);
    00000566 E504                   MOV         #4,R5
    00000568 4E0B                   JSR         @R14
    0000056A E403                   MOV         #3,R4
      15062020.c   306        Print((unsigned char*)"Kaufmann");
    0000056C D426                   MOV.L       L1131+58,R4; L460
    0000056E 4D0B                   JSR         @R13
    00000570 0009                   NOP
      15062020.c   307        locate(1,5);




SH SERIES C/C++ Compiler (Ver. 6.0C)                                                                 14-Jun-2020 13:18:49  PAGE   19


SCT OFFSET   CODE       C LABEL     INSTRUCTION OPERAND    COMMENT

    00000572 E505                   MOV         #5,R5
    00000574 4E0B                   JSR         @R14
    00000576 E401                   MOV         #1,R4
      15062020.c   308        Print((unsigned char*)"-OHG offene Handels-");
    00000578 D424                   MOV.L       L1131+62,R4; L461
    0000057A 4D0B                   JSR         @R13
    0000057C 0009                   NOP
      15062020.c   309        locate(3,6);
    0000057E E506                   MOV         #6,R5
    00000580 4E0B                   JSR         @R14
    00000582 E403                   MOV         #3,R4
      15062020.c   310        Print((unsigned char*)"gesellschaft");
    00000584 D422                   MOV.L       L1131+66,R4; L462
    00000586 4D0B                   JSR         @R13
    00000588 1F41                   MOV.L       R4,@(4,R15)
      15062020.c   311        locate(1,7);
    0000058A E507                   MOV         #7,R5
    0000058C 4E0B                   JSR         @R14
    0000058E E401                   MOV         #1,R4
      15062020.c   312        Print((unsigned char*)"-Kg Kommandit-");
    00000590 D420                   MOV.L       L1131+70,R4; L463
    00000592 4D0B                   JSR         @R13
    00000594 0009                   NOP
      15062020.c   313        locate(3,8);
    00000596 E508                   MOV         #8,R5
    00000598 4E0B                   JSR         @R14
    0000059A E403                   MOV         #3,R4
      15062020.c   314        Print((unsigned char*)"gesellschaft");
    0000059C 4D0B                   JSR         @R13
    0000059E 54F1                   MOV.L       @(4,R15),R4
    000005A0 DB15                   MOV.L       L1131+42,R11; _GetKey
    000005A2 9C14                   MOV.W       L1131,R12  ; H'7532
    000005A4 DE13                   MOV.L       L1131+38,R14; _Bdisp_AllClr_DDVRAM
    000005A6 6DC3                   MOV         R12,R13
    000005A8 7D15                   ADD         #21,R13
      15062020.c   315        while (1){
    000005AA              L1014:                            
      15062020.c   316            unsigned int key;       
      15062020.c   317            GetKey(&key);
    000005AA 4B0B                   JSR         @R11
    000005AC 64F3                   MOV         R15,R4
      15062020.c   318            if(KEY_CTRL_EXIT == key) {
    000005AE 62F2                   MOV.L       @R15,R2
    000005B0 32C0                   CMP/EQ      R12,R2
    000005B2 8B03                   BF          L1015
      15062020.c   319                Bdisp_AllClr_DDVRAM();
    000005B4 4E0B                   JSR         @R14
    000005B6 0009                   NOP
      15062020.c   320                lf1menu();
    000005B8 BEE8                   BSR         _lf1menu
    000005BA 0009                   NOP
    000005BC              L1015:                            
      15062020.c   321            }
      15062020.c   322            if(KEY_CTRL_DOWN == key) {
    000005BC 63F2                   MOV.L       @R15,R3
    000005BE 33D0                   CMP/EQ      R13,R3
    000005C0 8BF3                   BF          L1014




SH SERIES C/C++ Compiler (Ver. 6.0C)                                                                 14-Jun-2020 13:18:49  PAGE   20


SCT OFFSET   CODE       C LABEL     INSTRUCTION OPERAND    COMMENT

      15062020.c   323                Bdisp_AllClr_DDVRAM();
    000005C2 4E0B                   JSR         @R14
    000005C4 0009                   NOP
      15062020.c   324                lf1menuitem2_1();
    000005C6 B027                   BSR         _lf1menuitem2_1
    000005C8 0009                   NOP
    000005CA AFEE                   BRA         L1014
    000005CC 0009                   NOP
    000005CE              L1131:                            
    000005CE 7532                   .DATA.W     H'7532
    000005D0 <00000000>             .DATA.L     _locate
    000005D4 <00000000>             .DATA.L     _Print
    000005D8 <00000000>             .DATA.L     L422
    000005DC <00000000>             .DATA.L     L447
    000005E0 <00000000>             .DATA.L     L448
    000005E4 <00000000>             .DATA.L     L449
    000005E8 <00000000>             .DATA.L     L450
    000005EC <00000000>             .DATA.L     L451
    000005F0 <00000000>             .DATA.L     L452
    000005F4 <00000000>             .DATA.L     _Bdisp_AllClr_DDVRAM
    000005F8 <00000000>             .DATA.L     _GetKey
    000005FC <00000000>             .DATA.L     L457
    00000600 <00000000>             .DATA.L     L458
    00000604 <00000000>             .DATA.L     L459
    00000608 <00000000>             .DATA.L     L460
    0000060C <00000000>             .DATA.L     L461
    00000610 <00000000>             .DATA.L     L462
    00000614 <00000000>             .DATA.L     L463
      15062020.c   325            }
      15062020.c   326        } 
      15062020.c   327    }
      15062020.c   328    int lf1menuitem2_1(){
    00000618              _lf1menuitem2_1:                 ; function: lf1menuitem2_1
                                                           ; frame size=4
      15062020.c   329        locate(1,1);
    00000618 DE42                   MOV.L       L1132+2,R14; _locate
    0000061A E501                   MOV         #1,R5
    0000061C 7FFC                   ADD         #-4,R15
    0000061E 4E0B                   JSR         @R14
    00000620 6453                   MOV         R5,R4
      15062020.c   330        Print((unsigned char*)"Rechtsformen 2/2");
    00000622 DD41                   MOV.L       L1132+6,R13; _Print
    00000624 D441                   MOV.L       L1132+10,R4; L470
    00000626 4D0B                   JSR         @R13
    00000628 0009                   NOP
      15062020.c   331        locate(1,2);
    0000062A E502                   MOV         #2,R5
    0000062C 4E0B                   JSR         @R14
    0000062E E401                   MOV         #1,R4
      15062020.c   332        Print((unsigned char*)"Kapitalgesellschaft");
    00000630 D43F                   MOV.L       L1132+14,R4; L471
    00000632 4D0B                   JSR         @R13
    00000634 0009                   NOP
      15062020.c   333        locate(1,3);
    00000636 E503                   MOV         #3,R5
    00000638 4E0B                   JSR         @R14
    0000063A E401                   MOV         #1,R4




SH SERIES C/C++ Compiler (Ver. 6.0C)                                                                 14-Jun-2020 13:18:49  PAGE   21


SCT OFFSET   CODE       C LABEL     INSTRUCTION OPERAND    COMMENT

      15062020.c   334        Print((unsigned char*)"-GmbH Gesellschaft");
    0000063C D43D                   MOV.L       L1132+18,R4; L472
    0000063E 4D0B                   JSR         @R13
    00000640 0009                   NOP
      15062020.c   335        locate(3,4);
    00000642 E504                   MOV         #4,R5
    00000644 4E0B                   JSR         @R14
    00000646 E403                   MOV         #3,R4
      15062020.c   336        Print((unsigned char*)"mit beschrankter");
    00000648 D43B                   MOV.L       L1132+22,R4; L473
    0000064A 4D0B                   JSR         @R13
    0000064C 0009                   NOP
      15062020.c   337        locate(3,5);
    0000064E E505                   MOV         #5,R5
    00000650 4E0B                   JSR         @R14
    00000652 E403                   MOV         #3,R4
      15062020.c   338        Print((unsigned char*)"Haftung");
    00000654 D439                   MOV.L       L1132+26,R4; L474
    00000656 4D0B                   JSR         @R13
    00000658 0009                   NOP
      15062020.c   339        locate(1,6);
    0000065A E506                   MOV         #6,R5
    0000065C 4E0B                   JSR         @R14
    0000065E E401                   MOV         #1,R4
      15062020.c   340        Print((unsigned char*)"-AG Aktien-");
    00000660 D437                   MOV.L       L1132+30,R4; L475
    00000662 4D0B                   JSR         @R13
    00000664 0009                   NOP
      15062020.c   341        locate(3,7);
    00000666 E507                   MOV         #7,R5
    00000668 4E0B                   JSR         @R14
    0000066A E403                   MOV         #3,R4
      15062020.c   342        Print((unsigned char*)"gesellschaft");
    0000066C D435                   MOV.L       L1132+34,R4; L462
    0000066E 4D0B                   JSR         @R13
    00000670 0009                   NOP
    00000672 DB35                   MOV.L       L1132+38,R11; _GetKey
    00000674 9C55                   MOV.W       L1132,R12  ; H'7532
    00000676 6DC3                   MOV         R12,R13
    00000678 DE34                   MOV.L       L1132+42,R14; _Bdisp_AllClr_DDVRAM
    0000067A 7D10                   ADD         #16,R13
      15062020.c   343        while (1){
    0000067C              L1018:                            
      15062020.c   344            unsigned int key;       
      15062020.c   345            GetKey(&key);
    0000067C 4B0B                   JSR         @R11
    0000067E 64F3                   MOV         R15,R4
      15062020.c   346            if(KEY_CTRL_EXIT == key) {
    00000680 62F2                   MOV.L       @R15,R2
    00000682 32C0                   CMP/EQ      R12,R2
    00000684 8B03                   BF          L1019
      15062020.c   347                Bdisp_AllClr_DDVRAM();
    00000686 4E0B                   JSR         @R14
    00000688 0009                   NOP
      15062020.c   348                lf1menu();
    0000068A BE7F                   BSR         _lf1menu
    0000068C 0009                   NOP




SH SERIES C/C++ Compiler (Ver. 6.0C)                                                                 14-Jun-2020 13:18:49  PAGE   22


SCT OFFSET   CODE       C LABEL     INSTRUCTION OPERAND    COMMENT

    0000068E              L1019:                            
      15062020.c   349            }
      15062020.c   350            if(KEY_CTRL_UP == key) {
    0000068E 63F2                   MOV.L       @R15,R3
    00000690 33D0                   CMP/EQ      R13,R3
    00000692 8BF3                   BF          L1018
      15062020.c   351                Bdisp_AllClr_DDVRAM();
    00000694 4E0B                   JSR         @R14
    00000696 0009                   NOP
      15062020.c   352                lf1menuitem2();
    00000698 BF50                   BSR         _lf1menuitem2
    0000069A 0009                   NOP
    0000069C AFEE                   BRA         L1018
    0000069E 0009                   NOP
      15062020.c   353            }
      15062020.c   354        } 
      15062020.c   355    }
      15062020.c   356    int lf1menuitem3(){   
    000006A0              _lf1menuitem3:                   ; function: lf1menuitem3
                                                           ; frame size=4
      15062020.c   357        locate(1,1);
    000006A0 DE20                   MOV.L       L1132+2,R14; _locate
    000006A2 E501                   MOV         #1,R5
    000006A4 7FFC                   ADD         #-4,R15
    000006A6 4E0B                   JSR         @R14
    000006A8 6453                   MOV         R5,R4
      15062020.c   358        Print((unsigned char*)"Gewinnverteilung");
    000006AA DD1F                   MOV.L       L1132+6,R13; _Print
    000006AC D428                   MOV.L       L1132+46,R4; L424
    000006AE 4D0B                   JSR         @R13
    000006B0 0009                   NOP
      15062020.c   359        locate(1,2);
    000006B2 E502                   MOV         #2,R5
    000006B4 4E0B                   JSR         @R14
    000006B6 E401                   MOV         #1,R4
      15062020.c   360        Print((unsigned char*)"-OHG: 4% auf Kapital");
    000006B8 D426                   MOV.L       L1132+50,R4; L481
    000006BA 4D0B                   JSR         @R13
    000006BC 0009                   NOP
      15062020.c   361        locate(2,3);
    000006BE E503                   MOV         #3,R5
    000006C0 4E0B                   JSR         @R14
    000006C2 E402                   MOV         #2,R4
      15062020.c   362        Print((unsigned char*)"Einlagen, Rest nach");
    000006C4 D424                   MOV.L       L1132+54,R4; L482
    000006C6 4D0B                   JSR         @R13
    000006C8 0009                   NOP
      15062020.c   363        locate(2,4);
    000006CA E504                   MOV         #4,R5
    000006CC 4E0B                   JSR         @R14
    000006CE E402                   MOV         #2,R4
      15062020.c   364        Print((unsigned char*)"Koepfen.");
    000006D0 D422                   MOV.L       L1132+58,R4; L483
    000006D2 4D0B                   JSR         @R13
    000006D4 0009                   NOP
      15062020.c   365        locate(1,5);
    000006D6 E505                   MOV         #5,R5




SH SERIES C/C++ Compiler (Ver. 6.0C)                                                                 14-Jun-2020 13:18:49  PAGE   23


SCT OFFSET   CODE       C LABEL     INSTRUCTION OPERAND    COMMENT

    000006D8 4E0B                   JSR         @R14
    000006DA E401                   MOV         #1,R4
      15062020.c   366        Print((unsigned char*)"-KG: 4% auf Kapital");
    000006DC D420                   MOV.L       L1132+62,R4; L484
    000006DE 4D0B                   JSR         @R13
    000006E0 0009                   NOP
      15062020.c   367        locate(2,6);
    000006E2 E506                   MOV         #6,R5
    000006E4 4E0B                   JSR         @R14
    000006E6 E402                   MOV         #2,R4
      15062020.c   368        Print((unsigned char*)"Einlagen, Rest im");
    000006E8 D41E                   MOV.L       L1132+66,R4; L485
    000006EA 4D0B                   JSR         @R13
    000006EC 0009                   NOP
      15062020.c   369        locate(2,7);
    000006EE E507                   MOV         #7,R5
    000006F0 4E0B                   JSR         @R14
    000006F2 E402                   MOV         #2,R4
      15062020.c   370        Print((unsigned char*)"angemessenen");
    000006F4 D41C                   MOV.L       L1132+70,R4; L486
    000006F6 4D0B                   JSR         @R13
    000006F8 0009                   NOP
      15062020.c   371        locate(2,8);
    000006FA E508                   MOV         #8,R5
    000006FC 4E0B                   JSR         @R14
    000006FE E402                   MOV         #2,R4
      15062020.c   372        Print((unsigned char*)"Verhaeltnissen");
    00000700 D41A                   MOV.L       L1132+74,R4; L487
    00000702 4D0B                   JSR         @R13
    00000704 0009                   NOP
    00000706 DC11                   MOV.L       L1132+42,R12; _Bdisp_AllClr_DDVRAM
    00000708 DD0F                   MOV.L       L1132+38,R13; _GetKey
    0000070A 9E0A                   MOV.W       L1132,R14  ; H'7532
      15062020.c   373        while (1){
    0000070C              L1022:                            
      15062020.c   374            unsigned int key;       
      15062020.c   375            GetKey(&key);
    0000070C 4D0B                   JSR         @R13
    0000070E 64F3                   MOV         R15,R4
      15062020.c   376            if(KEY_CTRL_EXIT == key) {
    00000710 62F2                   MOV.L       @R15,R2
    00000712 32E0                   CMP/EQ      R14,R2
    00000714 8BFA                   BF          L1022
      15062020.c   377                Bdisp_AllClr_DDVRAM();
    00000716 4C0B                   JSR         @R12
    00000718 0009                   NOP
      15062020.c   378                lf1menu();
    0000071A BE37                   BSR         _lf1menu
    0000071C 0009                   NOP
    0000071E AFF5                   BRA         L1022
    00000720 0009                   NOP
    00000722              L1132:                            
    00000722 7532                   .DATA.W     H'7532
    00000724 <00000000>             .DATA.L     _locate
    00000728 <00000000>             .DATA.L     _Print
    0000072C <00000000>             .DATA.L     L470
    00000730 <00000000>             .DATA.L     L471




SH SERIES C/C++ Compiler (Ver. 6.0C)                                                                 14-Jun-2020 13:18:49  PAGE   24


SCT OFFSET   CODE       C LABEL     INSTRUCTION OPERAND    COMMENT

    00000734 <00000000>             .DATA.L     L472
    00000738 <00000000>             .DATA.L     L473
    0000073C <00000000>             .DATA.L     L474
    00000740 <00000000>             .DATA.L     L475
    00000744 <00000000>             .DATA.L     L462
    00000748 <00000000>             .DATA.L     _GetKey
    0000074C <00000000>             .DATA.L     _Bdisp_AllClr_DDVRAM
    00000750 <00000000>             .DATA.L     L424
    00000754 <00000000>             .DATA.L     L481
    00000758 <00000000>             .DATA.L     L482
    0000075C <00000000>             .DATA.L     L483
    00000760 <00000000>             .DATA.L     L484
    00000764 <00000000>             .DATA.L     L485
    00000768 <00000000>             .DATA.L     L486
    0000076C <00000000>             .DATA.L     L487
      15062020.c   379            }
      15062020.c   380        } 
      15062020.c   381    }
      15062020.c   382    int lf1menuitem4(){
    00000770              _lf1menuitem4:                   ; function: lf1menuitem4
                                                           ; frame size=4
      15062020.c   383        locate(1,1);
    00000770 DE25                   MOV.L       L1133+4,R14; _locate
    00000772 E501                   MOV         #1,R5
    00000774 7FFC                   ADD         #-4,R15
    00000776 4E0B                   JSR         @R14
    00000778 6453                   MOV         R5,R4
      15062020.c   384        Print((unsigned char*)"Haftung 1/5");
    0000077A DD24                   MOV.L       L1133+8,R13; _Print
    0000077C D424                   MOV.L       L1133+12,R4; L492
    0000077E 4D0B                   JSR         @R13
    00000780 0009                   NOP
      15062020.c   385        locate(1,2);
    00000782 E502                   MOV         #2,R5
    00000784 4E0B                   JSR         @R14
    00000786 E401                   MOV         #1,R4
      15062020.c   386        Print((unsigned char*)"Kommanditgesellschaf");
    00000788 D422                   MOV.L       L1133+16,R4; L493
    0000078A 4D0B                   JSR         @R13
    0000078C 0009                   NOP
      15062020.c   387        locate(1,3);
    0000078E E503                   MOV         #3,R5
    00000790 4E0B                   JSR         @R14
    00000792 E401                   MOV         #1,R4
      15062020.c   388        Print((unsigned char*)"-Kommandist: Haftung");
    00000794 D420                   MOV.L       L1133+20,R4; L494
    00000796 4D0B                   JSR         @R13
    00000798 0009                   NOP
      15062020.c   389        locate(2,4);
    0000079A E504                   MOV         #4,R5
    0000079C 4E0B                   JSR         @R14
    0000079E E402                   MOV         #2,R4
      15062020.c   390        Print((unsigned char*)"mit eingelargertem");
    000007A0 D41E                   MOV.L       L1133+24,R4; L495
    000007A2 4D0B                   JSR         @R13
    000007A4 0009                   NOP
      15062020.c   391        locate(2,5);




SH SERIES C/C++ Compiler (Ver. 6.0C)                                                                 14-Jun-2020 13:18:49  PAGE   25


SCT OFFSET   CODE       C LABEL     INSTRUCTION OPERAND    COMMENT

    000007A6 E505                   MOV         #5,R5
    000007A8 4E0B                   JSR         @R14
    000007AA E402                   MOV         #2,R4
      15062020.c   392        Print((unsigned char*)"Kapital, keine");
    000007AC D41C                   MOV.L       L1133+28,R4; L496
    000007AE 4D0B                   JSR         @R13
    000007B0 0009                   NOP
      15062020.c   393        locate(2,6);
    000007B2 E506                   MOV         #6,R5
    000007B4 4E0B                   JSR         @R14
    000007B6 E402                   MOV         #2,R4
      15062020.c   394        Print((unsigned char*)"Geschaftsfuhrung");
    000007B8 D41A                   MOV.L       L1133+32,R4; L497
    000007BA 4D0B                   JSR         @R13
    000007BC 0009                   NOP
      15062020.c   395        locate(1,7);
    000007BE E507                   MOV         #7,R5
    000007C0 4E0B                   JSR         @R14
    000007C2 E401                   MOV         #1,R4
      15062020.c   396        Print((unsigned char*)"-Komplimentaer");
    000007C4 D418                   MOV.L       L1133+36,R4; L498
    000007C6 4D0B                   JSR         @R13
    000007C8 0009                   NOP
      15062020.c   397        locate(2,8);
    000007CA E508                   MOV         #8,R5
    000007CC 4E0B                   JSR         @R14
    000007CE E402                   MOV         #2,R4
      15062020.c   398        Print((unsigned char*)"Haftung mit Kapital");
    000007D0 D416                   MOV.L       L1133+40,R4; L499
    000007D2 4D0B                   JSR         @R13
    000007D4 0009                   NOP
    000007D6 DB16                   MOV.L       L1133+44,R11; _GetKey
    000007D8 9C14                   MOV.W       L1133,R12  ; H'7532
    000007DA 6DC3                   MOV         R12,R13
    000007DC DE15                   MOV.L       L1133+48,R14; _Bdisp_AllClr_DDVRAM
    000007DE 7D15                   ADD         #21,R13
      15062020.c   399        while (1){
    000007E0              L1025:                            
      15062020.c   400            unsigned int key;       
      15062020.c   401            GetKey(&key);
    000007E0 4B0B                   JSR         @R11
    000007E2 64F3                   MOV         R15,R4
      15062020.c   402            if(KEY_CTRL_EXIT == key) {
    000007E4 62F2                   MOV.L       @R15,R2
    000007E6 32C0                   CMP/EQ      R12,R2
    000007E8 8B03                   BF          L1026
      15062020.c   403                Bdisp_AllClr_DDVRAM();
    000007EA 4E0B                   JSR         @R14
    000007EC 0009                   NOP
      15062020.c   404                lf1menu();
    000007EE BDCD                   BSR         _lf1menu
    000007F0 0009                   NOP
    000007F2              L1026:                            
      15062020.c   405            }
      15062020.c   406            if(KEY_CTRL_DOWN == key) {
    000007F2 63F2                   MOV.L       @R15,R3
    000007F4 33D0                   CMP/EQ      R13,R3




SH SERIES C/C++ Compiler (Ver. 6.0C)                                                                 14-Jun-2020 13:18:49  PAGE   26


SCT OFFSET   CODE       C LABEL     INSTRUCTION OPERAND    COMMENT

    000007F6 8BF3                   BF          L1025
      15062020.c   407                Bdisp_AllClr_DDVRAM();
    000007F8 4E0B                   JSR         @R14
    000007FA 0009                   NOP
      15062020.c   408                lf1menuitem4_1();
    000007FC B01C                   BSR         _lf1menuitem4_1
    000007FE 0009                   NOP
    00000800 AFEE                   BRA         L1025
    00000802 0009                   NOP
    00000804              L1133:                            
    00000804 7532                   .DATA.W     H'7532
    00000806 0000                   .DATA.W     0
    00000808 <00000000>             .DATA.L     _locate
    0000080C <00000000>             .DATA.L     _Print
    00000810 <00000000>             .DATA.L     L492
    00000814 <00000000>             .DATA.L     L493
    00000818 <00000000>             .DATA.L     L494
    0000081C <00000000>             .DATA.L     L495
    00000820 <00000000>             .DATA.L     L496
    00000824 <00000000>             .DATA.L     L497
    00000828 <00000000>             .DATA.L     L498
    0000082C <00000000>             .DATA.L     L499
    00000830 <00000000>             .DATA.L     _GetKey
    00000834 <00000000>             .DATA.L     _Bdisp_AllClr_DDVRAM
      15062020.c   409            }
      15062020.c   410        } 
      15062020.c   411    }
      15062020.c   412    int lf1menuitem4_1(){
    00000838              _lf1menuitem4_1:                 ; function: lf1menuitem4_1
                                                           ; frame size=4
      15062020.c   413        locate(1,1);
    00000838 DE26                   MOV.L       L1134+4,R14; _locate
    0000083A E501                   MOV         #1,R5
    0000083C 7FFC                   ADD         #-4,R15
    0000083E 4E0B                   JSR         @R14
    00000840 6453                   MOV         R5,R4
      15062020.c   414        Print((unsigned char*)"Haftung 2/5");
    00000842 DD25                   MOV.L       L1134+8,R13; _Print
    00000844 D425                   MOV.L       L1134+12,R4; L506
    00000846 4D0B                   JSR         @R13
    00000848 0009                   NOP
      15062020.c   415        locate(2,2);
    0000084A E502                   MOV         #2,R5
    0000084C 4E0B                   JSR         @R14
    0000084E 6453                   MOV         R5,R4
      15062020.c   416        Print((unsigned char*)"Einlagen und privat");
    00000850 D423                   MOV.L       L1134+16,R4; L507
    00000852 4D0B                   JSR         @R13
    00000854 0009                   NOP
      15062020.c   417        locate(2,3);
    00000856 E503                   MOV         #3,R5
    00000858 4E0B                   JSR         @R14
    0000085A E402                   MOV         #2,R4
      15062020.c   418        Print((unsigned char*)"Geschaftsfuhrer");
    0000085C D421                   MOV.L       L1134+20,R4; L508
    0000085E 4D0B                   JSR         @R13
    00000860 0009                   NOP




SH SERIES C/C++ Compiler (Ver. 6.0C)                                                                 14-Jun-2020 13:18:49  PAGE   27


SCT OFFSET   CODE       C LABEL     INSTRUCTION OPERAND    COMMENT

      15062020.c   419        locate(1,5);
    00000862 E505                   MOV         #5,R5
    00000864 4E0B                   JSR         @R14
    00000866 E401                   MOV         #1,R4
      15062020.c   420        Print((unsigned char*)"Offene Handelsgesel.");
    00000868 D41F                   MOV.L       L1134+24,R4; L509
    0000086A 4D0B                   JSR         @R13
    0000086C 0009                   NOP
      15062020.c   421        locate(1,6);
    0000086E E506                   MOV         #6,R5
    00000870 4E0B                   JSR         @R14
    00000872 E401                   MOV         #1,R4
      15062020.c   422        Print((unsigned char*)"-unmittelbar (");
    00000874 D41D                   MOV.L       L1134+28,R4; L510
    00000876 4D0B                   JSR         @R13
    00000878 0009                   NOP
      15062020.c   423        locate(2,7);
    0000087A E507                   MOV         #7,R5
    0000087C 4E0B                   JSR         @R14
    0000087E E402                   MOV         #2,R4
      15062020.c   424        Print((unsigned char*)"Glaubiger kann an");
    00000880 D41B                   MOV.L       L1134+32,R4; L511
    00000882 4D0B                   JSR         @R13
    00000884 0009                   NOP
      15062020.c   425        locate(2,8);
    00000886 E508                   MOV         #8,R5
    00000888 4E0B                   JSR         @R14
    0000088A E402                   MOV         #2,R4
      15062020.c   426        Print((unsigned char*)"Gesellschafter");
    0000088C D419                   MOV.L       L1134+36,R4; L512
    0000088E 4D0B                   JSR         @R13
    00000890 0009                   NOP
    00000892 DA19                   MOV.L       L1134+40,R10; _GetKey
    00000894 9B1C                   MOV.W       L1134,R11  ; H'7542
    00000896 6CB3                   MOV         R11,R12
    00000898 9D1B                   MOV.W       L1134+2,R13; H'7547
    0000089A 7CF0                   ADD         #-16,R12
    0000089C DE17                   MOV.L       L1134+44,R14; _Bdisp_AllClr_DDVRAM
      15062020.c   427        while (1){
    0000089E              L1029:                            
      15062020.c   428            unsigned int key;       
      15062020.c   429            GetKey(&key);
    0000089E 4A0B                   JSR         @R10
    000008A0 64F3                   MOV         R15,R4
      15062020.c   430            if(KEY_CTRL_EXIT == key) {
    000008A2 62F2                   MOV.L       @R15,R2
    000008A4 32C0                   CMP/EQ      R12,R2
    000008A6 8B03                   BF          L1030
      15062020.c   431                Bdisp_AllClr_DDVRAM();
    000008A8 4E0B                   JSR         @R14
    000008AA 0009                   NOP
      15062020.c   432                lf1menu();
    000008AC BD6E                   BSR         _lf1menu
    000008AE 0009                   NOP
    000008B0              L1030:                            
      15062020.c   433            }
      15062020.c   434            if(KEY_CTRL_UP == key) {




SH SERIES C/C++ Compiler (Ver. 6.0C)                                                                 14-Jun-2020 13:18:49  PAGE   28


SCT OFFSET   CODE       C LABEL     INSTRUCTION OPERAND    COMMENT

    000008B0 63F2                   MOV.L       @R15,R3
    000008B2 33B0                   CMP/EQ      R11,R3
    000008B4 8B03                   BF          L1031
      15062020.c   435                Bdisp_AllClr_DDVRAM();
    000008B6 4E0B                   JSR         @R14
    000008B8 0009                   NOP
      15062020.c   436                lf1menuitem4();
    000008BA BF59                   BSR         _lf1menuitem4
    000008BC 0009                   NOP
    000008BE              L1031:                            
      15062020.c   437            }
      15062020.c   438            if(KEY_CTRL_DOWN == key) {
    000008BE 62F2                   MOV.L       @R15,R2
    000008C0 32D0                   CMP/EQ      R13,R2
    000008C2 8BEC                   BF          L1029
      15062020.c   439                Bdisp_AllClr_DDVRAM();
    000008C4 4E0B                   JSR         @R14
    000008C6 0009                   NOP
      15062020.c   440                lf1menuitem4_2();
    000008C8 B01A                   BSR         _lf1menuitem4_2
    000008CA 0009                   NOP
    000008CC AFE7                   BRA         L1029
    000008CE 0009                   NOP
    000008D0              L1134:                            
    000008D0 7542                   .DATA.W     H'7542
    000008D2 7547                   .DATA.W     H'7547
    000008D4 <00000000>             .DATA.L     _locate
    000008D8 <00000000>             .DATA.L     _Print
    000008DC <00000000>             .DATA.L     L506
    000008E0 <00000000>             .DATA.L     L507
    000008E4 <00000000>             .DATA.L     L508
    000008E8 <00000000>             .DATA.L     L509
    000008EC <00000000>             .DATA.L     L510
    000008F0 <00000000>             .DATA.L     L511
    000008F4 <00000000>             .DATA.L     L512
    000008F8 <00000000>             .DATA.L     _GetKey
    000008FC <00000000>             .DATA.L     _Bdisp_AllClr_DDVRAM
      15062020.c   441            }
      15062020.c   442        } 
      15062020.c   443    }
      15062020.c   444    int lf1menuitem4_2(){
    00000900              _lf1menuitem4_2:                 ; function: lf1menuitem4_2
                                                           ; frame size=4
      15062020.c   445        locate(1,1);
    00000900 DE29                   MOV.L       L1135+4,R14; _locate
    00000902 E501                   MOV         #1,R5
    00000904 7FFC                   ADD         #-4,R15
    00000906 4E0B                   JSR         @R14
    00000908 6453                   MOV         R5,R4
      15062020.c   446        Print((unsigned char*)"Haftung 3/5");
    0000090A DD28                   MOV.L       L1135+8,R13; _Print
    0000090C D428                   MOV.L       L1135+12,R4; L520
    0000090E 4D0B                   JSR         @R13
    00000910 0009                   NOP
      15062020.c   447        locate(2,2);
    00000912 E502                   MOV         #2,R5
    00000914 4E0B                   JSR         @R14




SH SERIES C/C++ Compiler (Ver. 6.0C)                                                                 14-Jun-2020 13:18:49  PAGE   29


SCT OFFSET   CODE       C LABEL     INSTRUCTION OPERAND    COMMENT

    00000916 6453                   MOV         R5,R4
      15062020.c   448        Print((unsigned char*)"herantreten und");
    00000918 D426                   MOV.L       L1135+16,R4; L521
    0000091A 4D0B                   JSR         @R13
    0000091C 0009                   NOP
      15062020.c   449        locate(2,3);
    0000091E E503                   MOV         #3,R5
    00000920 4E0B                   JSR         @R14
    00000922 E402                   MOV         #2,R4
      15062020.c   450        Print((unsigned char*)"Schulden einfordern");
    00000924 D424                   MOV.L       L1135+20,R4; L522
    00000926 4D0B                   JSR         @R13
    00000928 0009                   NOP
      15062020.c   451        locate(1,4);
    0000092A E504                   MOV         #4,R5
    0000092C 4E0B                   JSR         @R14
    0000092E E401                   MOV         #1,R4
      15062020.c   452        Print((unsigned char*)"-unbeschrankt (");
    00000930 D422                   MOV.L       L1135+24,R4; L523
    00000932 4D0B                   JSR         @R13
    00000934 0009                   NOP
      15062020.c   453        locate(2,5);
    00000936 E505                   MOV         #5,R5
    00000938 4E0B                   JSR         @R14
    0000093A E402                   MOV         #2,R4
      15062020.c   454        Print((unsigned char*)"privat+Gesellschaft");
    0000093C D420                   MOV.L       L1135+28,R4; L524
    0000093E 4D0B                   JSR         @R13
    00000940 0009                   NOP
      15062020.c   455        locate(2,6);
    00000942 E506                   MOV         #6,R5
    00000944 4E0B                   JSR         @R14
    00000946 E402                   MOV         #2,R4
      15062020.c   456        Print((unsigned char*)"vermoegen)");
    00000948 D41E                   MOV.L       L1135+32,R4; L525
    0000094A 4D0B                   JSR         @R13
    0000094C 0009                   NOP
      15062020.c   457        locate(1,7);
    0000094E E507                   MOV         #7,R5
    00000950 4E0B                   JSR         @R14
    00000952 E401                   MOV         #1,R4
      15062020.c   458        Print((unsigned char*)"-Solidarisch (");
    00000954 D41C                   MOV.L       L1135+36,R4; L526
    00000956 4D0B                   JSR         @R13
    00000958 0009                   NOP
      15062020.c   459        locate(2,8);
    0000095A E508                   MOV         #8,R5
    0000095C 4E0B                   JSR         @R14
    0000095E E402                   MOV         #2,R4
      15062020.c   460        Print((unsigned char*)"gemeinsame Haftung");
    00000960 D41A                   MOV.L       L1135+40,R4; L527
    00000962 4D0B                   JSR         @R13
    00000964 0009                   NOP
    00000966 DA1A                   MOV.L       L1135+44,R10; _GetKey
    00000968 9B1C                   MOV.W       L1135,R11  ; H'7542
    0000096A 6CB3                   MOV         R11,R12
    0000096C 9D1B                   MOV.W       L1135+2,R13; H'7547




SH SERIES C/C++ Compiler (Ver. 6.0C)                                                                 14-Jun-2020 13:18:49  PAGE   30


SCT OFFSET   CODE       C LABEL     INSTRUCTION OPERAND    COMMENT

    0000096E 7CF0                   ADD         #-16,R12
    00000970 DE18                   MOV.L       L1135+48,R14; _Bdisp_AllClr_DDVRAM
      15062020.c   461        while (1){
    00000972              L1034:                            
      15062020.c   462            unsigned int key;       
      15062020.c   463            GetKey(&key);
    00000972 4A0B                   JSR         @R10
    00000974 64F3                   MOV         R15,R4
      15062020.c   464            if(KEY_CTRL_EXIT == key) {
    00000976 62F2                   MOV.L       @R15,R2
    00000978 32C0                   CMP/EQ      R12,R2
    0000097A 8B03                   BF          L1035
      15062020.c   465                Bdisp_AllClr_DDVRAM();
    0000097C 4E0B                   JSR         @R14
    0000097E 0009                   NOP
      15062020.c   466                lf1menu();
    00000980 BD04                   BSR         _lf1menu
    00000982 0009                   NOP
    00000984              L1035:                            
      15062020.c   467            }
      15062020.c   468            if(KEY_CTRL_UP == key) {
    00000984 63F2                   MOV.L       @R15,R3
    00000986 33B0                   CMP/EQ      R11,R3
    00000988 8B03                   BF          L1036
      15062020.c   469                Bdisp_AllClr_DDVRAM();
    0000098A 4E0B                   JSR         @R14
    0000098C 0009                   NOP
      15062020.c   470                lf1menuitem4_1();
    0000098E BF53                   BSR         _lf1menuitem4_1
    00000990 0009                   NOP
    00000992              L1036:                            
      15062020.c   471            }
      15062020.c   472            if(KEY_CTRL_DOWN == key) {
    00000992 62F2                   MOV.L       @R15,R2
    00000994 32D0                   CMP/EQ      R13,R2
    00000996 8BEC                   BF          L1034
      15062020.c   473                Bdisp_AllClr_DDVRAM();
    00000998 4E0B                   JSR         @R14
    0000099A 0009                   NOP
      15062020.c   474                lf1menuitem4_3();
    0000099C B01C                   BSR         _lf1menuitem4_3
    0000099E 0009                   NOP
    000009A0 AFE7                   BRA         L1034
    000009A2 0009                   NOP
    000009A4              L1135:                            
    000009A4 7542                   .DATA.W     H'7542
    000009A6 7547                   .DATA.W     H'7547
    000009A8 <00000000>             .DATA.L     _locate
    000009AC <00000000>             .DATA.L     _Print
    000009B0 <00000000>             .DATA.L     L520
    000009B4 <00000000>             .DATA.L     L521
    000009B8 <00000000>             .DATA.L     L522
    000009BC <00000000>             .DATA.L     L523
    000009C0 <00000000>             .DATA.L     L524
    000009C4 <00000000>             .DATA.L     L525
    000009C8 <00000000>             .DATA.L     L526
    000009CC <00000000>             .DATA.L     L527




SH SERIES C/C++ Compiler (Ver. 6.0C)                                                                 14-Jun-2020 13:18:49  PAGE   31


SCT OFFSET   CODE       C LABEL     INSTRUCTION OPERAND    COMMENT

    000009D0 <00000000>             .DATA.L     _GetKey
    000009D4 <00000000>             .DATA.L     _Bdisp_AllClr_DDVRAM
      15062020.c   475            }
      15062020.c   476        } 
      15062020.c   477    }
      15062020.c   478    int lf1menuitem4_3(){
    000009D8              _lf1menuitem4_3:                 ; function: lf1menuitem4_3
                                                           ; frame size=4
      15062020.c   479        locate(1,1);
    000009D8 DE26                   MOV.L       L1136+4,R14; _locate
    000009DA E501                   MOV         #1,R5
    000009DC 7FFC                   ADD         #-4,R15
    000009DE 4E0B                   JSR         @R14
    000009E0 6453                   MOV         R5,R4
      15062020.c   480        Print((unsigned char*)"Haftung 4/5");
    000009E2 DD25                   MOV.L       L1136+8,R13; _Print
    000009E4 D425                   MOV.L       L1136+12,R4; L535
    000009E6 4D0B                   JSR         @R13
    000009E8 0009                   NOP
      15062020.c   481        locate(2,2);
    000009EA E502                   MOV         #2,R5
    000009EC 4E0B                   JSR         @R14
    000009EE 6453                   MOV         R5,R4
      15062020.c   482        Print((unsigned char*)"in alle fuer einen");
    000009F0 D423                   MOV.L       L1136+16,R4; L536
    000009F2 4D0B                   JSR         @R13
    000009F4 0009                   NOP
      15062020.c   483        locate(2,3);
    000009F6 E503                   MOV         #3,R5
    000009F8 4E0B                   JSR         @R14
    000009FA E402                   MOV         #2,R4
      15062020.c   484        Print((unsigned char*)"Musketierprinzip)");
    000009FC D421                   MOV.L       L1136+20,R4; L537
    000009FE 4D0B                   JSR         @R13
    00000A00 0009                   NOP
      15062020.c   485        locate(1,5);
    00000A02 E505                   MOV         #5,R5
    00000A04 4E0B                   JSR         @R14
    00000A06 E401                   MOV         #1,R4
      15062020.c   486        Print((unsigned char*)"GmbH (Grundungs-");
    00000A08 D41F                   MOV.L       L1136+24,R4; L538
    00000A0A 4D0B                   JSR         @R13
    00000A0C 0009                   NOP
      15062020.c   487        locate(2,6);
    00000A0E E506                   MOV         #6,R5
    00000A10 4E0B                   JSR         @R14
    00000A12 E402                   MOV         #2,R4
      15062020.c   488        Print((unsigned char*)"kapital 25.000Eur,");
    00000A14 D41D                   MOV.L       L1136+28,R4; L539
    00000A16 4D0B                   JSR         @R13
    00000A18 0009                   NOP
      15062020.c   489        locate(2,7);
    00000A1A E507                   MOV         #7,R5
    00000A1C 4E0B                   JSR         @R14
    00000A1E E402                   MOV         #2,R4
      15062020.c   490        Print((unsigned char*)"Gewinnverteilung");
    00000A20 D41B                   MOV.L       L1136+32,R4; L424




SH SERIES C/C++ Compiler (Ver. 6.0C)                                                                 14-Jun-2020 13:18:49  PAGE   32


SCT OFFSET   CODE       C LABEL     INSTRUCTION OPERAND    COMMENT

    00000A22 4D0B                   JSR         @R13
    00000A24 0009                   NOP
      15062020.c   491        locate(2,8);
    00000A26 E508                   MOV         #8,R5
    00000A28 4E0B                   JSR         @R14
    00000A2A E402                   MOV         #2,R4
      15062020.c   492        Print((unsigned char*)"nach Anteilen am");
    00000A2C D419                   MOV.L       L1136+36,R4; L540
    00000A2E 4D0B                   JSR         @R13
    00000A30 0009                   NOP
    00000A32 DA19                   MOV.L       L1136+40,R10; _GetKey
    00000A34 9B1C                   MOV.W       L1136,R11  ; H'7542
    00000A36 6CB3                   MOV         R11,R12
    00000A38 9D1B                   MOV.W       L1136+2,R13; H'7547
    00000A3A 7CF0                   ADD         #-16,R12
    00000A3C DE17                   MOV.L       L1136+44,R14; _Bdisp_AllClr_DDVRAM
      15062020.c   493        while (1){
    00000A3E              L1039:                            
      15062020.c   494            unsigned int key;       
      15062020.c   495            GetKey(&key);
    00000A3E 4A0B                   JSR         @R10
    00000A40 64F3                   MOV         R15,R4
      15062020.c   496            if(KEY_CTRL_EXIT == key) {
    00000A42 62F2                   MOV.L       @R15,R2
    00000A44 32C0                   CMP/EQ      R12,R2
    00000A46 8B03                   BF          L1040
      15062020.c   497                Bdisp_AllClr_DDVRAM();
    00000A48 4E0B                   JSR         @R14
    00000A4A 0009                   NOP
      15062020.c   498                lf1menu();
    00000A4C BC9E                   BSR         _lf1menu
    00000A4E 0009                   NOP
    00000A50              L1040:                            
      15062020.c   499            }
      15062020.c   500            if(KEY_CTRL_UP == key) {
    00000A50 63F2                   MOV.L       @R15,R3
    00000A52 33B0                   CMP/EQ      R11,R3
    00000A54 8B03                   BF          L1041
      15062020.c   501                Bdisp_AllClr_DDVRAM();
    00000A56 4E0B                   JSR         @R14
    00000A58 0009                   NOP
      15062020.c   502                lf1menuitem4_2();
    00000A5A BF51                   BSR         _lf1menuitem4_2
    00000A5C 0009                   NOP
    00000A5E              L1041:                            
      15062020.c   503            }
      15062020.c   504            if(KEY_CTRL_DOWN == key) {
    00000A5E 62F2                   MOV.L       @R15,R2
    00000A60 32D0                   CMP/EQ      R13,R2
    00000A62 8BEC                   BF          L1039
      15062020.c   505                Bdisp_AllClr_DDVRAM();
    00000A64 4E0B                   JSR         @R14
    00000A66 0009                   NOP
      15062020.c   506                lf1menuitem4_4();
    00000A68 B01A                   BSR         _lf1menuitem4_4
    00000A6A 0009                   NOP
    00000A6C AFE7                   BRA         L1039




SH SERIES C/C++ Compiler (Ver. 6.0C)                                                                 14-Jun-2020 13:18:49  PAGE   33


SCT OFFSET   CODE       C LABEL     INSTRUCTION OPERAND    COMMENT

    00000A6E 0009                   NOP
    00000A70              L1136:                            
    00000A70 7542                   .DATA.W     H'7542
    00000A72 7547                   .DATA.W     H'7547
    00000A74 <00000000>             .DATA.L     _locate
    00000A78 <00000000>             .DATA.L     _Print
    00000A7C <00000000>             .DATA.L     L535
    00000A80 <00000000>             .DATA.L     L536
    00000A84 <00000000>             .DATA.L     L537
    00000A88 <00000000>             .DATA.L     L538
    00000A8C <00000000>             .DATA.L     L539
    00000A90 <00000000>             .DATA.L     L424
    00000A94 <00000000>             .DATA.L     L540
    00000A98 <00000000>             .DATA.L     _GetKey
    00000A9C <00000000>             .DATA.L     _Bdisp_AllClr_DDVRAM
      15062020.c   507            }
      15062020.c   508        } 
      15062020.c   509    }
      15062020.c   510    int lf1menuitem4_4(){
    00000AA0              _lf1menuitem4_4:                 ; function: lf1menuitem4_4
                                                           ; frame size=4
      15062020.c   511        locate(1,1);
    00000AA0 DE47                   MOV.L       L1137+4,R14; _locate
    00000AA2 E501                   MOV         #1,R5
    00000AA4 7FFC                   ADD         #-4,R15
    00000AA6 4E0B                   JSR         @R14
    00000AA8 6453                   MOV         R5,R4
      15062020.c   512        Print((unsigned char*)"Haftung 5/5");
    00000AAA DD46                   MOV.L       L1137+8,R13; _Print
    00000AAC D446                   MOV.L       L1137+12,R4; L548
    00000AAE 4D0B                   JSR         @R13
    00000AB0 0009                   NOP
      15062020.c   513        locate(2,2);
    00000AB2 E502                   MOV         #2,R5
    00000AB4 4E0B                   JSR         @R14
    00000AB6 6453                   MOV         R5,R4
      15062020.c   514        Print((unsigned char*)"Gesamtvermoegen)");
    00000AB8 D444                   MOV.L       L1137+16,R4; L549
    00000ABA 4D0B                   JSR         @R13
    00000ABC 0009                   NOP
      15062020.c   515        locate(1,4);
    00000ABE E504                   MOV         #4,R5
    00000AC0 4E0B                   JSR         @R14
    00000AC2 E401                   MOV         #1,R4
      15062020.c   516        Print((unsigned char*)"-AG (Grundungs-");
    00000AC4 D442                   MOV.L       L1137+20,R4; L550
    00000AC6 4D0B                   JSR         @R13
    00000AC8 0009                   NOP
      15062020.c   517        locate(2,5);
    00000ACA E505                   MOV         #5,R5
    00000ACC 4E0B                   JSR         @R14
    00000ACE E402                   MOV         #2,R4
      15062020.c   518        Print((unsigned char*)"kapital 50.000Eur,");
    00000AD0 D440                   MOV.L       L1137+24,R4; L551
    00000AD2 4D0B                   JSR         @R13
    00000AD4 0009                   NOP
      15062020.c   519        locate(2,6);




SH SERIES C/C++ Compiler (Ver. 6.0C)                                                                 14-Jun-2020 13:18:49  PAGE   34


SCT OFFSET   CODE       C LABEL     INSTRUCTION OPERAND    COMMENT

    00000AD6 E506                   MOV         #6,R5
    00000AD8 4E0B                   JSR         @R14
    00000ADA E402                   MOV         #2,R4
      15062020.c   520        Print((unsigned char*)"Gewinnverteilung");
    00000ADC D43E                   MOV.L       L1137+28,R4; L424
    00000ADE 4D0B                   JSR         @R13
    00000AE0 0009                   NOP
      15062020.c   521        locate(2,7);
    00000AE2 E507                   MOV         #7,R5
    00000AE4 4E0B                   JSR         @R14
    00000AE6 E402                   MOV         #2,R4
      15062020.c   522        Print((unsigned char*)"Dividenden, Kurs-");
    00000AE8 D43C                   MOV.L       L1137+32,R4; L552
    00000AEA 4D0B                   JSR         @R13
    00000AEC 0009                   NOP
      15062020.c   523        locate(2,8);
    00000AEE E508                   MOV         #8,R5
    00000AF0 4E0B                   JSR         @R14
    00000AF2 E402                   MOV         #2,R4
      15062020.c   524        Print((unsigned char*)"gewinne, Anteile)");
    00000AF4 D43A                   MOV.L       L1137+36,R4; L553
    00000AF6 4D0B                   JSR         @R13
    00000AF8 0009                   NOP
    00000AFA DB3A                   MOV.L       L1137+40,R11; _GetKey
    00000AFC 9C5E                   MOV.W       L1137,R12  ; H'7532
    00000AFE 6DC3                   MOV         R12,R13
    00000B00 DE39                   MOV.L       L1137+44,R14; _Bdisp_AllClr_DDVRAM
    00000B02 7D10                   ADD         #16,R13
      15062020.c   525        while (1){
    00000B04              L1044:                            
      15062020.c   526            unsigned int key;       
      15062020.c   527            GetKey(&key);
    00000B04 4B0B                   JSR         @R11
    00000B06 64F3                   MOV         R15,R4
      15062020.c   528            if(KEY_CTRL_EXIT == key) {
    00000B08 62F2                   MOV.L       @R15,R2
    00000B0A 32C0                   CMP/EQ      R12,R2
    00000B0C 8B03                   BF          L1045
      15062020.c   529                Bdisp_AllClr_DDVRAM();
    00000B0E 4E0B                   JSR         @R14
    00000B10 0009                   NOP
      15062020.c   530                lf1menu();
    00000B12 BC3B                   BSR         _lf1menu
    00000B14 0009                   NOP
    00000B16              L1045:                            
      15062020.c   531            }
      15062020.c   532            if(KEY_CTRL_UP == key) {
    00000B16 63F2                   MOV.L       @R15,R3
    00000B18 33D0                   CMP/EQ      R13,R3
    00000B1A 8BF3                   BF          L1044
      15062020.c   533                Bdisp_AllClr_DDVRAM();
    00000B1C 4E0B                   JSR         @R14
    00000B1E 0009                   NOP
      15062020.c   534                lf1menuitem4_3();
    00000B20 BF5A                   BSR         _lf1menuitem4_3
    00000B22 0009                   NOP
    00000B24 AFEE                   BRA         L1044




SH SERIES C/C++ Compiler (Ver. 6.0C)                                                                 14-Jun-2020 13:18:49  PAGE   35


SCT OFFSET   CODE       C LABEL     INSTRUCTION OPERAND    COMMENT

    00000B26 0009                   NOP
      15062020.c   535            }
      15062020.c   536        } 
      15062020.c   537    }
      15062020.c   538    int lf1menuitem5(){
    00000B28              _lf1menuitem5:                   ; function: lf1menuitem5
                                                           ; frame size=4
      15062020.c   539        locate(1,1);
    00000B28 DE25                   MOV.L       L1137+4,R14; _locate
    00000B2A E501                   MOV         #1,R5
    00000B2C 7FFC                   ADD         #-4,R15
    00000B2E 4E0B                   JSR         @R14
    00000B30 6453                   MOV         R5,R4
      15062020.c   540        Print((unsigned char*)"Preisbildungs... 1/3");
    00000B32 DD24                   MOV.L       L1137+8,R13; _Print
    00000B34 D42D                   MOV.L       L1137+48,R4; L559
    00000B36 4D0B                   JSR         @R13
    00000B38 0009                   NOP
      15062020.c   541        locate(1,2);
    00000B3A E502                   MOV         #2,R5
    00000B3C 4E0B                   JSR         @R14
    00000B3E E401                   MOV         #1,R4
      15062020.c   542        Print((unsigned char*)"-Markt");
    00000B40 D42B                   MOV.L       L1137+52,R4; L560
    00000B42 4D0B                   JSR         @R13
    00000B44 0009                   NOP
      15062020.c   543        locate(2,3);
    00000B46 E503                   MOV         #3,R5
    00000B48 4E0B                   JSR         @R14
    00000B4A E402                   MOV         #2,R4
      15062020.c   544        Print((unsigned char*)"Angebot<->Nachfrage");
    00000B4C D429                   MOV.L       L1137+56,R4; L561
    00000B4E 4D0B                   JSR         @R13
    00000B50 0009                   NOP
      15062020.c   545        locate(2,4);
    00000B52 E504                   MOV         #4,R5
    00000B54 4E0B                   JSR         @R14
    00000B56 E402                   MOV         #2,R4
      15062020.c   546        Print((unsigned char*)"Der Markt wird");
    00000B58 D427                   MOV.L       L1137+60,R4; L562
    00000B5A 4D0B                   JSR         @R13
    00000B5C 0009                   NOP
      15062020.c   547        locate(2,5);
    00000B5E E505                   MOV         #5,R5
    00000B60 4E0B                   JSR         @R14
    00000B62 E402                   MOV         #2,R4
      15062020.c   548        Print((unsigned char*)"Mithilfe eines");
    00000B64 D425                   MOV.L       L1137+64,R4; L563
    00000B66 4D0B                   JSR         @R13
    00000B68 0009                   NOP
      15062020.c   549        locate(2,6);
    00000B6A E506                   MOV         #6,R5
    00000B6C 4E0B                   JSR         @R14
    00000B6E E402                   MOV         #2,R4
      15062020.c   550        Print((unsigned char*)"Modells vereinfacht");
    00000B70 D423                   MOV.L       L1137+68,R4; L564
    00000B72 4D0B                   JSR         @R13




SH SERIES C/C++ Compiler (Ver. 6.0C)                                                                 14-Jun-2020 13:18:49  PAGE   36


SCT OFFSET   CODE       C LABEL     INSTRUCTION OPERAND    COMMENT

    00000B74 0009                   NOP
      15062020.c   551        locate(2,7);
    00000B76 E507                   MOV         #7,R5
    00000B78 4E0B                   JSR         @R14
    00000B7A E402                   MOV         #2,R4
      15062020.c   552        Print((unsigned char*)"dargestellt:");
    00000B7C D421                   MOV.L       L1137+72,R4; L565
    00000B7E 4D0B                   JSR         @R13
    00000B80 0009                   NOP
      15062020.c   553        locate(3,8);
    00000B82 E508                   MOV         #8,R5
    00000B84 4E0B                   JSR         @R14
    00000B86 E403                   MOV         #3,R4
      15062020.c   554        Print((unsigned char*)"vollkommener Markt");
    00000B88 D41F                   MOV.L       L1137+76,R4; L566
    00000B8A 4D0B                   JSR         @R13
    00000B8C 0009                   NOP
    00000B8E DB15                   MOV.L       L1137+40,R11; _GetKey
    00000B90 9C14                   MOV.W       L1137,R12  ; H'7532
    00000B92 6DC3                   MOV         R12,R13
    00000B94 DE14                   MOV.L       L1137+44,R14; _Bdisp_AllClr_DDVRAM
    00000B96 7D15                   ADD         #21,R13
      15062020.c   555        while (1){
    00000B98              L1048:                            
      15062020.c   556            unsigned int key;       
      15062020.c   557            GetKey(&key);
    00000B98 4B0B                   JSR         @R11
    00000B9A 64F3                   MOV         R15,R4
      15062020.c   558            if(KEY_CTRL_EXIT == key) {
    00000B9C 62F2                   MOV.L       @R15,R2
    00000B9E 32C0                   CMP/EQ      R12,R2
    00000BA0 8B03                   BF          L1049
      15062020.c   559                Bdisp_AllClr_DDVRAM();
    00000BA2 4E0B                   JSR         @R14
    00000BA4 0009                   NOP
      15062020.c   560                lf1menu();
    00000BA6 BBF1                   BSR         _lf1menu
    00000BA8 0009                   NOP
    00000BAA              L1049:                            
      15062020.c   561            }
      15062020.c   562            if(KEY_CTRL_DOWN == key) {
    00000BAA 63F2                   MOV.L       @R15,R3
    00000BAC 33D0                   CMP/EQ      R13,R3
    00000BAE 8BF3                   BF          L1048
      15062020.c   563                Bdisp_AllClr_DDVRAM();
    00000BB0 4E0B                   JSR         @R14
    00000BB2 0009                   NOP
      15062020.c   564                lf1menuitem5_1();
    00000BB4 B02A                   BSR         _lf1menuitem5_1
    00000BB6 0009                   NOP
    00000BB8 AFEE                   BRA         L1048
    00000BBA 0009                   NOP
    00000BBC              L1137:                            
    00000BBC 7532                   .DATA.W     H'7532
    00000BBE 0000                   .DATA.W     0
    00000BC0 <00000000>             .DATA.L     _locate
    00000BC4 <00000000>             .DATA.L     _Print




SH SERIES C/C++ Compiler (Ver. 6.0C)                                                                 14-Jun-2020 13:18:49  PAGE   37


SCT OFFSET   CODE       C LABEL     INSTRUCTION OPERAND    COMMENT

    00000BC8 <00000000>             .DATA.L     L548
    00000BCC <00000000>             .DATA.L     L549
    00000BD0 <00000000>             .DATA.L     L550
    00000BD4 <00000000>             .DATA.L     L551
    00000BD8 <00000000>             .DATA.L     L424
    00000BDC <00000000>             .DATA.L     L552
    00000BE0 <00000000>             .DATA.L     L553
    00000BE4 <00000000>             .DATA.L     _GetKey
    00000BE8 <00000000>             .DATA.L     _Bdisp_AllClr_DDVRAM
    00000BEC <00000000>             .DATA.L     L559
    00000BF0 <00000000>             .DATA.L     L560
    00000BF4 <00000000>             .DATA.L     L561
    00000BF8 <00000000>             .DATA.L     L562
    00000BFC <00000000>             .DATA.L     L563
    00000C00 <00000000>             .DATA.L     L564
    00000C04 <00000000>             .DATA.L     L565
    00000C08 <00000000>             .DATA.L     L566
      15062020.c   565            }
      15062020.c   566        } 
      15062020.c   567    }
      15062020.c   568    int lf1menuitem5_1(){
    00000C0C              _lf1menuitem5_1:                 ; function: lf1menuitem5_1
                                                           ; frame size=4
      15062020.c   569        locate(1,1);
    00000C0C DE26                   MOV.L       L1138+4,R14; _locate
    00000C0E E501                   MOV         #1,R5
    00000C10 7FFC                   ADD         #-4,R15
    00000C12 4E0B                   JSR         @R14
    00000C14 6453                   MOV         R5,R4
      15062020.c   570        Print((unsigned char*)"Preisbildungs... 2/3");
    00000C16 DD25                   MOV.L       L1138+8,R13; _Print
    00000C18 D425                   MOV.L       L1138+12,R4; L573
    00000C1A 4D0B                   JSR         @R13
    00000C1C 0009                   NOP
      15062020.c   571        locate(2,2);
    00000C1E E502                   MOV         #2,R5
    00000C20 4E0B                   JSR         @R14
    00000C22 6453                   MOV         R5,R4
      15062020.c   572        Print((unsigned char*)"Realitat:");
    00000C24 D423                   MOV.L       L1138+16,R4; L574
    00000C26 4D0B                   JSR         @R13
    00000C28 0009                   NOP
      15062020.c   573        locate(3,3);
    00000C2A E503                   MOV         #3,R5
    00000C2C 4E0B                   JSR         @R14
    00000C2E 6453                   MOV         R5,R4
      15062020.c   574        Print((unsigned char*)"unvollkomm. Markt");
    00000C30 D421                   MOV.L       L1138+20,R4; L575
    00000C32 4D0B                   JSR         @R13
    00000C34 0009                   NOP
      15062020.c   575        locate(1,5);
    00000C36 E505                   MOV         #5,R5
    00000C38 4E0B                   JSR         @R14
    00000C3A E401                   MOV         #1,R4
      15062020.c   576        Print((unsigned char*)"Angebotskurve");
    00000C3C D41F                   MOV.L       L1138+24,R4; L576
    00000C3E 4D0B                   JSR         @R13




SH SERIES C/C++ Compiler (Ver. 6.0C)                                                                 14-Jun-2020 13:18:49  PAGE   38


SCT OFFSET   CODE       C LABEL     INSTRUCTION OPERAND    COMMENT

    00000C40 0009                   NOP
      15062020.c   577        locate(2,6);
    00000C42 E506                   MOV         #6,R5
    00000C44 4E0B                   JSR         @R14
    00000C46 E402                   MOV         #2,R4
      15062020.c   578        Print((unsigned char*)"1) Angebotskurve");
    00000C48 D41D                   MOV.L       L1138+28,R4; L577
    00000C4A 4D0B                   JSR         @R13
    00000C4C 0009                   NOP
      15062020.c   579        locate(2,7);
    00000C4E E507                   MOV         #7,R5
    00000C50 4E0B                   JSR         @R14
    00000C52 E402                   MOV         #2,R4
      15062020.c   580        Print((unsigned char*)"2) Kaufermarkt");
    00000C54 D41B                   MOV.L       L1138+32,R4; L578
    00000C56 4D0B                   JSR         @R13
    00000C58 0009                   NOP
      15062020.c   581        locate(2,8);
    00000C5A E508                   MOV         #8,R5
    00000C5C 4E0B                   JSR         @R14
    00000C5E E402                   MOV         #2,R4
      15062020.c   582        Print((unsigned char*)"3) Gleichgew.spreis");
    00000C60 D419                   MOV.L       L1138+36,R4; L579
    00000C62 4D0B                   JSR         @R13
    00000C64 0009                   NOP
    00000C66 DA19                   MOV.L       L1138+40,R10; _GetKey
    00000C68 9B1C                   MOV.W       L1138,R11  ; H'7542
    00000C6A 6CB3                   MOV         R11,R12
    00000C6C 9D1B                   MOV.W       L1138+2,R13; H'7547
    00000C6E 7CF0                   ADD         #-16,R12
    00000C70 DE17                   MOV.L       L1138+44,R14; _Bdisp_AllClr_DDVRAM
      15062020.c   583        while (1) {
    00000C72              L1052:                            
      15062020.c   584            unsigned int key;       
      15062020.c   585            GetKey(&key);
    00000C72 4A0B                   JSR         @R10
    00000C74 64F3                   MOV         R15,R4
      15062020.c   586            if(KEY_CTRL_EXIT == key) {
    00000C76 62F2                   MOV.L       @R15,R2
    00000C78 32C0                   CMP/EQ      R12,R2
    00000C7A 8B03                   BF          L1053
      15062020.c   587                Bdisp_AllClr_DDVRAM();
    00000C7C 4E0B                   JSR         @R14
    00000C7E 0009                   NOP
      15062020.c   588                lf1menu();
    00000C80 BB84                   BSR         _lf1menu
    00000C82 0009                   NOP
    00000C84              L1053:                            
      15062020.c   589            }
      15062020.c   590            if(KEY_CTRL_UP == key) {
    00000C84 63F2                   MOV.L       @R15,R3
    00000C86 33B0                   CMP/EQ      R11,R3
    00000C88 8B03                   BF          L1054
      15062020.c   591                Bdisp_AllClr_DDVRAM();
    00000C8A 4E0B                   JSR         @R14
    00000C8C 0009                   NOP
      15062020.c   592                lf1menuitem5();




SH SERIES C/C++ Compiler (Ver. 6.0C)                                                                 14-Jun-2020 13:18:49  PAGE   39


SCT OFFSET   CODE       C LABEL     INSTRUCTION OPERAND    COMMENT

    00000C8E BF4B                   BSR         _lf1menuitem5
    00000C90 0009                   NOP
    00000C92              L1054:                            
      15062020.c   593            }
      15062020.c   594            if(KEY_CTRL_DOWN == key) {
    00000C92 62F2                   MOV.L       @R15,R2
    00000C94 32D0                   CMP/EQ      R13,R2
    00000C96 8BEC                   BF          L1052
      15062020.c   595                Bdisp_AllClr_DDVRAM();
    00000C98 4E0B                   JSR         @R14
    00000C9A 0009                   NOP
      15062020.c   596                lf1menuitem5_2();
    00000C9C B01A                   BSR         _lf1menuitem5_2
    00000C9E 0009                   NOP
    00000CA0 AFE7                   BRA         L1052
    00000CA2 0009                   NOP
    00000CA4              L1138:                            
    00000CA4 7542                   .DATA.W     H'7542
    00000CA6 7547                   .DATA.W     H'7547
    00000CA8 <00000000>             .DATA.L     _locate
    00000CAC <00000000>             .DATA.L     _Print
    00000CB0 <00000000>             .DATA.L     L573
    00000CB4 <00000000>             .DATA.L     L574
    00000CB8 <00000000>             .DATA.L     L575
    00000CBC <00000000>             .DATA.L     L576
    00000CC0 <00000000>             .DATA.L     L577
    00000CC4 <00000000>             .DATA.L     L578
    00000CC8 <00000000>             .DATA.L     L579
    00000CCC <00000000>             .DATA.L     _GetKey
    00000CD0 <00000000>             .DATA.L     _Bdisp_AllClr_DDVRAM
      15062020.c   597            }
      15062020.c   598        } 
      15062020.c   599    }
      15062020.c   600    int lf1menuitem5_2(){
    00000CD4              _lf1menuitem5_2:                 ; function: lf1menuitem5_2
                                                           ; frame size=4
      15062020.c   601        locate(1,1);
    00000CD4 DE22                   MOV.L       L1139+4,R14; _locate
    00000CD6 E501                   MOV         #1,R5
    00000CD8 7FFC                   ADD         #-4,R15
    00000CDA 4E0B                   JSR         @R14
    00000CDC 6453                   MOV         R5,R4
      15062020.c   602        Print((unsigned char*)"Preisbildungs... 3/3");
    00000CDE DD21                   MOV.L       L1139+8,R13; _Print
    00000CE0 D421                   MOV.L       L1139+12,R4; L587
    00000CE2 4D0B                   JSR         @R13
    00000CE4 0009                   NOP
      15062020.c   603        locate(2,2);
    00000CE6 E502                   MOV         #2,R5
    00000CE8 4E0B                   JSR         @R14
    00000CEA 6453                   MOV         R5,R4
      15062020.c   604        Print((unsigned char*)"4) Verkaufermarkt");
    00000CEC D41F                   MOV.L       L1139+16,R4; L588
    00000CEE 4D0B                   JSR         @R13
    00000CF0 0009                   NOP
      15062020.c   605        locate(2,3);
    00000CF2 E503                   MOV         #3,R5




SH SERIES C/C++ Compiler (Ver. 6.0C)                                                                 14-Jun-2020 13:18:49  PAGE   40


SCT OFFSET   CODE       C LABEL     INSTRUCTION OPERAND    COMMENT

    00000CF4 4E0B                   JSR         @R14
    00000CF6 E402                   MOV         #2,R4
      15062020.c   606        Print((unsigned char*)"5) Nachfragekurve");
    00000CF8 D41D                   MOV.L       L1139+20,R4; L589
    00000CFA 4D0B                   JSR         @R13
    00000CFC 0009                   NOP
      15062020.c   607        locate(1,5);
    00000CFE E505                   MOV         #5,R5
    00000D00 4E0B                   JSR         @R14
    00000D02 E401                   MOV         #1,R4
      15062020.c   608        Print((unsigned char*)"X = 50Eur, 350Stk.");
    00000D04 D41B                   MOV.L       L1139+24,R4; L590
    00000D06 4D0B                   JSR         @R13
    00000D08 0009                   NOP
      15062020.c   609        locate(2,6);
    00000D0A E506                   MOV         #6,R5
    00000D0C 4E0B                   JSR         @R14
    00000D0E E402                   MOV         #2,R4
      15062020.c   610        Print((unsigned char*)"Viel Umsatz=50Eur.");
    00000D10 D419                   MOV.L       L1139+28,R4; L591
    00000D12 4D0B                   JSR         @R13
    00000D14 0009                   NOP
      15062020.c   611        locate(2,7);
    00000D16 E507                   MOV         #7,R5
    00000D18 4E0B                   JSR         @R14
    00000D1A E402                   MOV         #2,R4
      15062020.c   612        Print((unsigned char*)"Viel Umsatz=350Stk.");
    00000D1C D417                   MOV.L       L1139+32,R4; L592
    00000D1E 4D0B                   JSR         @R13
    00000D20 0009                   NOP
      15062020.c   613        locate(2,8);
    00000D22 E508                   MOV         #8,R5
    00000D24 4E0B                   JSR         @R14
    00000D26 E402                   MOV         #2,R4
      15062020.c   614        Print((unsigned char*)"Umax=50E*350S=17,5k");
    00000D28 D415                   MOV.L       L1139+36,R4; L593
    00000D2A 4D0B                   JSR         @R13
    00000D2C 0009                   NOP
    00000D2E DB15                   MOV.L       L1139+40,R11; _GetKey
    00000D30 9C14                   MOV.W       L1139,R12  ; H'7532
    00000D32 6DC3                   MOV         R12,R13
    00000D34 DE14                   MOV.L       L1139+44,R14; _Bdisp_AllClr_DDVRAM
    00000D36 7D10                   ADD         #16,R13
      15062020.c   615        while (1) {
    00000D38              L1057:                            
      15062020.c   616            unsigned int key;       
      15062020.c   617            GetKey(&key);
    00000D38 4B0B                   JSR         @R11
    00000D3A 64F3                   MOV         R15,R4
      15062020.c   618            if(KEY_CTRL_EXIT == key) {
    00000D3C 62F2                   MOV.L       @R15,R2
    00000D3E 32C0                   CMP/EQ      R12,R2
    00000D40 8B03                   BF          L1058
      15062020.c   619                Bdisp_AllClr_DDVRAM();
    00000D42 4E0B                   JSR         @R14
    00000D44 0009                   NOP
      15062020.c   620                lf1menu();




SH SERIES C/C++ Compiler (Ver. 6.0C)                                                                 14-Jun-2020 13:18:49  PAGE   41


SCT OFFSET   CODE       C LABEL     INSTRUCTION OPERAND    COMMENT

    00000D46 BB21                   BSR         _lf1menu
    00000D48 0009                   NOP
    00000D4A              L1058:                            
      15062020.c   621            }
      15062020.c   622            if(KEY_CTRL_UP == key) {
    00000D4A 63F2                   MOV.L       @R15,R3
    00000D4C 33D0                   CMP/EQ      R13,R3
    00000D4E 8BF3                   BF          L1057
      15062020.c   623                Bdisp_AllClr_DDVRAM();
    00000D50 4E0B                   JSR         @R14
    00000D52 0009                   NOP
      15062020.c   624                lf1menuitem5_1();
    00000D54 BF5A                   BSR         _lf1menuitem5_1
    00000D56 0009                   NOP
    00000D58 AFEE                   BRA         L1057
    00000D5A 0009                   NOP
    00000D5C              L1139:                            
    00000D5C 7532                   .DATA.W     H'7532
    00000D5E 0000                   .DATA.W     0
    00000D60 <00000000>             .DATA.L     _locate
    00000D64 <00000000>             .DATA.L     _Print
    00000D68 <00000000>             .DATA.L     L587
    00000D6C <00000000>             .DATA.L     L588
    00000D70 <00000000>             .DATA.L     L589
    00000D74 <00000000>             .DATA.L     L590
    00000D78 <00000000>             .DATA.L     L591
    00000D7C <00000000>             .DATA.L     L592
    00000D80 <00000000>             .DATA.L     L593
    00000D84 <00000000>             .DATA.L     _GetKey
    00000D88 <00000000>             .DATA.L     _Bdisp_AllClr_DDVRAM
      15062020.c   625            }
      15062020.c   626        } 
      15062020.c   627    }
      15062020.c   628    
      15062020.c   629    //Lernfeld 2
      15062020.c   630    int lf2menu() {
    00000D8C              _lf2menu:                        ; function: lf2menu
                                                           ; frame size=24
                                                           ; used runtime library name:
                                                           ; __quick_evn_mvn
      15062020.c   631        unsigned int i;
      15062020.c   632        unsigned int auswahl = 3;
      15062020.c   633        unsigned int menuItemsX = 2;
      15062020.c   634        unsigned int menuItemsY = 3;
      15062020.c   635        unsigned int menuItemsNbr = 4;
      15062020.c   636        unsigned char * menuItems[] = {
      15062020.c   637            "Organisation",
      15062020.c   638            "Regelkreis",
      15062020.c   639            "Organigramm",
      15062020.c   640            "ERP / SAP Systeme"
      15062020.c   641        };
    00000D8C D240                   MOV.L       L1140+8,R2 ; L605
    00000D8E 7FE8                   ADD         #-24,R15
    00000D90 EE03                   MOV         #3,R14
    00000D92 E304                   MOV         #4,R3
    00000D94 1F31                   MOV.L       R3,@(4,R15)
    00000D96 61F3                   MOV         R15,R1




SH SERIES C/C++ Compiler (Ver. 6.0C)                                                                 14-Jun-2020 13:18:49  PAGE   42


SCT OFFSET   CODE       C LABEL     INSTRUCTION OPERAND    COMMENT

    00000D98 D33E                   MOV.L       L1140+12,R3; __quick_evn_mvn
    00000D9A 7108                   ADD         #8,R1
    00000D9C 430B                   JSR         @R3
    00000D9E E010                   MOV         #16,R0
      15062020.c   642        Bdisp_AllClr_DDVRAM();
    00000DA0 DB3D                   MOV.L       L1140+16,R11; _Bdisp_AllClr_DDVRAM
    00000DA2 4B0B                   JSR         @R11
    00000DA4 0009                   NOP
      15062020.c   643        // TITLE 
      15062020.c   644        locate(1,1);
    00000DA6 E501                   MOV         #1,R5
    00000DA8 DD3C                   MOV.L       L1140+20,R13; _locate
    00000DAA 4D0B                   JSR         @R13
    00000DAC 6453                   MOV         R5,R4
      15062020.c   645        Print((unsigned char*)"Lernfeld 2");  
    00000DAE DC3C                   MOV.L       L1140+24,R12; _Print
    00000DB0 D43C                   MOV.L       L1140+28,R4; L354
    00000DB2 4C0B                   JSR         @R12
    00000DB4 0009                   NOP
      15062020.c   646        // Menu Items
      15062020.c   647        for(i=0; i < menuItemsNbr; i=i+1){
    00000DB6 EA00                   MOV         #0,R10
    00000DB8 69F3                   MOV         R15,R9
    00000DBA 7908                   ADD         #8,R9
    00000DBC E803                   MOV         #3,R8
    00000DBE              L1061:                            
      15062020.c   648            locate(menuItemsX, menuItemsY+i);
    00000DBE 6583                   MOV         R8,R5
    00000DC0 4D0B                   JSR         @R13
    00000DC2 E402                   MOV         #2,R4
      15062020.c   649            Print(menuItems[i]);
    00000DC4 4C0B                   JSR         @R12
    00000DC6 6496                   MOV.L       @R9+,R4
    00000DC8 52F1                   MOV.L       @(4,R15),R2
    00000DCA 7A01                   ADD         #1,R10
    00000DCC 3A22                   CMP/HS      R2,R10
    00000DCE 8FF6                   BF/S        L1061
    00000DD0 7801                   ADD         #1,R8
    00000DD2 9859                   MOV.W       L1140,R8   ; H'7542
    00000DD4 DA34                   MOV.L       L1140+32,R10; L366
    00000DD6 6983                   MOV         R8,R9
    00000DD8 7905                   ADD         #5,R9
      15062020.c   650        };
      15062020.c   651       
      15062020.c   652        // Cursor    
      15062020.c   653        while (1){
    00000DDA              L1063:                            
      15062020.c   654            unsigned int key;
      15062020.c   655            locate(1,auswahl);
    00000DDA 65E3                   MOV         R14,R5
    00000DDC 4D0B                   JSR         @R13
    00000DDE E401                   MOV         #1,R4
      15062020.c   656            Print((unsigned char*)">");       
    00000DE0 D432                   MOV.L       L1140+36,R4; L363
    00000DE2 4C0B                   JSR         @R12
    00000DE4 0009                   NOP
      15062020.c   657            GetKey(&key);




SH SERIES C/C++ Compiler (Ver. 6.0C)                                                                 14-Jun-2020 13:18:49  PAGE   43


SCT OFFSET   CODE       C LABEL     INSTRUCTION OPERAND    COMMENT

    00000DE6 D332                   MOV.L       L1140+40,R3; _GetKey
    00000DE8 430B                   JSR         @R3
    00000DEA 64F3                   MOV         R15,R4
      15062020.c   658            if(KEY_CTRL_UP == key) {
    00000DEC 62F2                   MOV.L       @R15,R2
    00000DEE 3280                   CMP/EQ      R8,R2
    00000DF0 8B0E                   BF          L1064
      15062020.c   659                if (auswahl == 3) {
    00000DF2 60E3                   MOV         R14,R0
    00000DF4 8803                   CMP/EQ      #3,R0
    00000DF6 8B05                   BF          L1065
      15062020.c   660                    locate(1,auswahl);
    00000DF8 65E3                   MOV         R14,R5
    00000DFA 4D0B                   JSR         @R13
    00000DFC E401                   MOV         #1,R4
      15062020.c   661                    Print((unsigned char*)" ");
    00000DFE 4C0B                   JSR         @R12
    00000E00 64A3                   MOV         R10,R4
      15062020.c   662                    auswahl = auswahl + 4;
    00000E02 7E04                   ADD         #4,R14
    00000E04              L1065:                            
      15062020.c   663                }
      15062020.c   664                locate(1,auswahl);
    00000E04 65E3                   MOV         R14,R5
    00000E06 4D0B                   JSR         @R13
    00000E08 E401                   MOV         #1,R4
      15062020.c   665                Print((unsigned char*)" ");
    00000E0A 4C0B                   JSR         @R12
    00000E0C 64A3                   MOV         R10,R4
      15062020.c   666                auswahl = auswahl - 1;
    00000E0E 7EFF                   ADD         #-1,R14
    00000E10              L1064:                            
      15062020.c   667            };
      15062020.c   668            if(KEY_CTRL_DOWN == key) {
    00000E10 63F2                   MOV.L       @R15,R3
    00000E12 3390                   CMP/EQ      R9,R3
    00000E14 8B0E                   BF          L1066
      15062020.c   669                if (auswahl == 6) {
    00000E16 60E3                   MOV         R14,R0
    00000E18 8806                   CMP/EQ      #6,R0
    00000E1A 8B05                   BF          L1067
      15062020.c   670                    locate(1,auswahl);
    00000E1C 65E3                   MOV         R14,R5
    00000E1E 4D0B                   JSR         @R13
    00000E20 E401                   MOV         #1,R4
      15062020.c   671                    Print((unsigned char*)" ");
    00000E22 4C0B                   JSR         @R12
    00000E24 64A3                   MOV         R10,R4
      15062020.c   672                    auswahl = auswahl - 4;
    00000E26 7EFC                   ADD         #-4,R14
    00000E28              L1067:                            
      15062020.c   673                }
      15062020.c   674                locate(1,auswahl);
    00000E28 65E3                   MOV         R14,R5
    00000E2A 4D0B                   JSR         @R13
    00000E2C E401                   MOV         #1,R4
      15062020.c   675                Print((unsigned char*)" ");




SH SERIES C/C++ Compiler (Ver. 6.0C)                                                                 14-Jun-2020 13:18:49  PAGE   44


SCT OFFSET   CODE       C LABEL     INSTRUCTION OPERAND    COMMENT

    00000E2E 4C0B                   JSR         @R12
    00000E30 64A3                   MOV         R10,R4
      15062020.c   676                auswahl = auswahl + 1;
    00000E32 7E01                   ADD         #1,R14
    00000E34              L1066:                            
      15062020.c   677            };
      15062020.c   678            if (KEY_CTRL_EXE == key) {
    00000E34 9229                   MOV.W       L1140+2,R2 ; H'7534
    00000E36 63F2                   MOV.L       @R15,R3
    00000E38 3320                   CMP/EQ      R2,R3
    00000E3A 8B1B                   BF          L1068
      15062020.c   679                if (auswahl == 3) {
    00000E3C 60E3                   MOV         R14,R0
    00000E3E 8803                   CMP/EQ      #3,R0
    00000E40 8B03                   BF          L1069
      15062020.c   680                    Bdisp_AllClr_DDVRAM();
    00000E42 4B0B                   JSR         @R11
    00000E44 0009                   NOP
      15062020.c   681                    lf2menuitem1();
    00000E46 B035                   BSR         _lf2menuitem1
    00000E48 0009                   NOP
    00000E4A              L1069:                            
      15062020.c   682                }
      15062020.c   683                if (auswahl == 4) {
    00000E4A 60E3                   MOV         R14,R0
    00000E4C 8804                   CMP/EQ      #4,R0
    00000E4E 8B03                   BF          L1070
      15062020.c   684                    Bdisp_AllClr_DDVRAM();
    00000E50 4B0B                   JSR         @R11
    00000E52 0009                   NOP
      15062020.c   685                    lf2menuitem2();
    00000E54 B19C                   BSR         _lf2menuitem2
    00000E56 0009                   NOP
    00000E58              L1070:                            
      15062020.c   686                }
      15062020.c   687                if (auswahl == 5) {
    00000E58 60E3                   MOV         R14,R0
    00000E5A 8805                   CMP/EQ      #5,R0
    00000E5C 8B03                   BF          L1071
      15062020.c   688                    Bdisp_AllClr_DDVRAM();
    00000E5E 4B0B                   JSR         @R11
    00000E60 0009                   NOP
      15062020.c   689                    lf2menuitem3();
    00000E62 B1F7                   BSR         _lf2menuitem3
    00000E64 0009                   NOP
    00000E66              L1071:                            
      15062020.c   690                }
      15062020.c   691                if (auswahl == 6) {
    00000E66 60E3                   MOV         R14,R0
    00000E68 8806                   CMP/EQ      #6,R0
    00000E6A 8B03                   BF          L1068
      15062020.c   692                    Bdisp_AllClr_DDVRAM();
    00000E6C 4B0B                   JSR         @R11
    00000E6E 0009                   NOP
      15062020.c   693                    lf2menuitem4();
    00000E70 B22B                   BSR         _lf2menuitem4
    00000E72 0009                   NOP




SH SERIES C/C++ Compiler (Ver. 6.0C)                                                                 14-Jun-2020 13:18:49  PAGE   45


SCT OFFSET   CODE       C LABEL     INSTRUCTION OPERAND    COMMENT

    00000E74              L1068:                            
      15062020.c   694                }
      15062020.c   695            };
      15062020.c   696            if (KEY_CTRL_EXIT == key) {
    00000E74 930A                   MOV.W       L1140+4,R3 ; H'7532
    00000E76 62F2                   MOV.L       @R15,R2
    00000E78 3230                   CMP/EQ      R3,R2
    00000E7A 8BAE                   BF          L1063
      15062020.c   697                Bdisp_AllClr_DDVRAM();
    00000E7C 4B0B                   JSR         @R11
    00000E7E 0009                   NOP
      15062020.c   698                firstMenu();
    00000E80 B8D2                   BSR         _firstMenu
    00000E82 0009                   NOP
    00000E84 AFA9                   BRA         L1063
    00000E86 0009                   NOP
    00000E88              L1140:                            
    00000E88 7542                   .DATA.W     H'7542
    00000E8A 7534                   .DATA.W     H'7534
    00000E8C 7532                   .DATA.W     H'7532
    00000E8E 0000                   .DATA.W     0
    00000E90 <00000000>             .DATA.L     L605
    00000E94 <00000000>             .DATA.L     __quick_evn_mvn
    00000E98 <00000000>             .DATA.L     _Bdisp_AllClr_DDVRAM
    00000E9C <00000000>             .DATA.L     _locate
    00000EA0 <00000000>             .DATA.L     _Print
    00000EA4 <00000000>             .DATA.L     L354
    00000EA8 <00000000>             .DATA.L     L366
    00000EAC <00000000>             .DATA.L     L363
    00000EB0 <00000000>             .DATA.L     _GetKey
      15062020.c   699            }
      15062020.c   700       }
      15062020.c   701    }
      15062020.c   702    int lf2menuitem1(){   
    00000EB4              _lf2menuitem1:                   ; function: lf2menuitem1
                                                           ; frame size=4
      15062020.c   703        locate(1,1);
    00000EB4 DE22                   MOV.L       L1141+4,R14; _locate
    00000EB6 E501                   MOV         #1,R5
    00000EB8 7FFC                   ADD         #-4,R15
    00000EBA 4E0B                   JSR         @R14
    00000EBC 6453                   MOV         R5,R4
      15062020.c   704        Print((unsigned char*)"Organisation 1/4");
    00000EBE DD21                   MOV.L       L1141+8,R13; _Print
    00000EC0 D421                   MOV.L       L1141+12,R4; L628
    00000EC2 4D0B                   JSR         @R13
    00000EC4 0009                   NOP
      15062020.c   705        locate(1,2);
    00000EC6 E502                   MOV         #2,R5
    00000EC8 4E0B                   JSR         @R14
    00000ECA E401                   MOV         #1,R4
      15062020.c   706        Print((unsigned char*)"-Zweckmassigkeit");
    00000ECC D41F                   MOV.L       L1141+16,R4; L629
    00000ECE 4D0B                   JSR         @R13
    00000ED0 0009                   NOP
      15062020.c   707        locate(2,3);
    00000ED2 E503                   MOV         #3,R5




SH SERIES C/C++ Compiler (Ver. 6.0C)                                                                 14-Jun-2020 13:18:49  PAGE   46


SCT OFFSET   CODE       C LABEL     INSTRUCTION OPERAND    COMMENT

    00000ED4 4E0B                   JSR         @R14
    00000ED6 E402                   MOV         #2,R4
      15062020.c   708        Print((unsigned char*)"Aufgab./Tatigkeiten");
    00000ED8 D41D                   MOV.L       L1141+20,R4; L630
    00000EDA 4D0B                   JSR         @R13
    00000EDC 0009                   NOP
      15062020.c   709        locate(2,4);
    00000EDE E504                   MOV         #4,R5
    00000EE0 4E0B                   JSR         @R14
    00000EE2 E402                   MOV         #2,R4
      15062020.c   710        Print((unsigned char*)"sollten dem");
    00000EE4 D41B                   MOV.L       L1141+24,R4; L631
    00000EE6 4D0B                   JSR         @R13
    00000EE8 0009                   NOP
      15062020.c   711        locate(2,5);
    00000EEA E505                   MOV         #5,R5
    00000EEC 4E0B                   JSR         @R14
    00000EEE E402                   MOV         #2,R4
      15062020.c   712        Print((unsigned char*)"Unternehmensziel");
    00000EF0 D419                   MOV.L       L1141+28,R4; L632
    00000EF2 4D0B                   JSR         @R13
    00000EF4 0009                   NOP
      15062020.c   713        locate(2,6);
    00000EF6 E506                   MOV         #6,R5
    00000EF8 4E0B                   JSR         @R14
    00000EFA E402                   MOV         #2,R4
      15062020.c   714        Print((unsigned char*)"entsprechen alles");
    00000EFC D417                   MOV.L       L1141+32,R4; L633
    00000EFE 4D0B                   JSR         @R13
    00000F00 0009                   NOP
      15062020.c   715        locate(2,7);
    00000F02 E507                   MOV         #7,R5
    00000F04 4E0B                   JSR         @R14
    00000F06 E402                   MOV         #2,R4
      15062020.c   716        Print((unsigned char*)"andere ist unzweck.");
    00000F08 D415                   MOV.L       L1141+36,R4; L634
    00000F0A 4D0B                   JSR         @R13
    00000F0C 0009                   NOP
    00000F0E DB15                   MOV.L       L1141+40,R11; _GetKey
    00000F10 9C14                   MOV.W       L1141,R12  ; H'7532
    00000F12 6DC3                   MOV         R12,R13
    00000F14 DE14                   MOV.L       L1141+44,R14; _Bdisp_AllClr_DDVRAM
    00000F16 7D15                   ADD         #21,R13
      15062020.c   717        while (1){
    00000F18              L1075:                            
      15062020.c   718            unsigned int key;       
      15062020.c   719            GetKey(&key);
    00000F18 4B0B                   JSR         @R11
    00000F1A 64F3                   MOV         R15,R4
      15062020.c   720            if(KEY_CTRL_EXIT == key) {
    00000F1C 62F2                   MOV.L       @R15,R2
    00000F1E 32C0                   CMP/EQ      R12,R2
    00000F20 8B03                   BF          L1076
      15062020.c   721                Bdisp_AllClr_DDVRAM();
    00000F22 4E0B                   JSR         @R14
    00000F24 0009                   NOP
      15062020.c   722                lf2menu();




SH SERIES C/C++ Compiler (Ver. 6.0C)                                                                 14-Jun-2020 13:18:49  PAGE   47


SCT OFFSET   CODE       C LABEL     INSTRUCTION OPERAND    COMMENT

    00000F26 BF31                   BSR         _lf2menu
    00000F28 0009                   NOP
    00000F2A              L1076:                            
      15062020.c   723            }
      15062020.c   724            if(KEY_CTRL_DOWN == key) {
    00000F2A 63F2                   MOV.L       @R15,R3
    00000F2C 33D0                   CMP/EQ      R13,R3
    00000F2E 8BF3                   BF          L1075
      15062020.c   725                Bdisp_AllClr_DDVRAM();
    00000F30 4E0B                   JSR         @R14
    00000F32 0009                   NOP
      15062020.c   726                lf2menuitem1_1();
    00000F34 B01A                   BSR         _lf2menuitem1_1
    00000F36 0009                   NOP
    00000F38 AFEE                   BRA         L1075
    00000F3A 0009                   NOP
    00000F3C              L1141:                            
    00000F3C 7532                   .DATA.W     H'7532
    00000F3E 0000                   .DATA.W     0
    00000F40 <00000000>             .DATA.L     _locate
    00000F44 <00000000>             .DATA.L     _Print
    00000F48 <00000000>             .DATA.L     L628
    00000F4C <00000000>             .DATA.L     L629
    00000F50 <00000000>             .DATA.L     L630
    00000F54 <00000000>             .DATA.L     L631
    00000F58 <00000000>             .DATA.L     L632
    00000F5C <00000000>             .DATA.L     L633
    00000F60 <00000000>             .DATA.L     L634
    00000F64 <00000000>             .DATA.L     _GetKey
    00000F68 <00000000>             .DATA.L     _Bdisp_AllClr_DDVRAM
      15062020.c   727            }
      15062020.c   728        } 
      15062020.c   729    }
      15062020.c   730    int lf2menuitem1_1(){   
    00000F6C              _lf2menuitem1_1:                 ; function: lf2menuitem1_1
                                                           ; frame size=4
      15062020.c   731        locate(1,1);
    00000F6C DE26                   MOV.L       L1142+4,R14; _locate
    00000F6E E501                   MOV         #1,R5
    00000F70 7FFC                   ADD         #-4,R15
    00000F72 4E0B                   JSR         @R14
    00000F74 6453                   MOV         R5,R4
      15062020.c   732        Print((unsigned char*)"Organisation 2/4");
    00000F76 DD25                   MOV.L       L1142+8,R13; _Print
    00000F78 D425                   MOV.L       L1142+12,R4; L641
    00000F7A 4D0B                   JSR         @R13
    00000F7C 0009                   NOP
      15062020.c   733        locate(1,2);
    00000F7E E502                   MOV         #2,R5
    00000F80 4E0B                   JSR         @R14
    00000F82 E401                   MOV         #1,R4
      15062020.c   734        Print((unsigned char*)"-Wirtschaftlichkeit");
    00000F84 D423                   MOV.L       L1142+16,R4; L642
    00000F86 4D0B                   JSR         @R13
    00000F88 0009                   NOP
      15062020.c   735        locate(2,3);
    00000F8A E503                   MOV         #3,R5




SH SERIES C/C++ Compiler (Ver. 6.0C)                                                                 14-Jun-2020 13:18:49  PAGE   48


SCT OFFSET   CODE       C LABEL     INSTRUCTION OPERAND    COMMENT

    00000F8C 4E0B                   JSR         @R14
    00000F8E E402                   MOV         #2,R4
      15062020.c   736        Print((unsigned char*)"T, A, Regelungen");
    00000F90 D421                   MOV.L       L1142+20,R4; L643
    00000F92 4D0B                   JSR         @R13
    00000F94 0009                   NOP
      15062020.c   737        locate(2,4);
    00000F96 E504                   MOV         #4,R5
    00000F98 4E0B                   JSR         @R14
    00000F9A E402                   MOV         #2,R4
      15062020.c   738        Print((unsigned char*)"sollten dem oko-");
    00000F9C D41F                   MOV.L       L1142+24,R4; L644
    00000F9E 4D0B                   JSR         @R13
    00000FA0 0009                   NOP
      15062020.c   739        locate(2,5);
    00000FA2 E505                   MOV         #5,R5
    00000FA4 4E0B                   JSR         @R14
    00000FA6 E402                   MOV         #2,R4
      15062020.c   740        Print((unsigned char*)"logischem Prinzip");
    00000FA8 D41D                   MOV.L       L1142+28,R4; L645
    00000FAA 4D0B                   JSR         @R13
    00000FAC 0009                   NOP
      15062020.c   741        locate(2,6);
    00000FAE E506                   MOV         #6,R5
    00000FB0 4E0B                   JSR         @R14
    00000FB2 E402                   MOV         #2,R4
      15062020.c   742        Print((unsigned char*)"entsprechen. Bsp.:");
    00000FB4 D41B                   MOV.L       L1142+32,R4; L646
    00000FB6 4D0B                   JSR         @R13
    00000FB8 0009                   NOP
      15062020.c   743        locate(2,7);
    00000FBA E507                   MOV         #7,R5
    00000FBC 4E0B                   JSR         @R14
    00000FBE E402                   MOV         #2,R4
      15062020.c   744        Print((unsigned char*)"Min. Max. Prinzip");
    00000FC0 D419                   MOV.L       L1142+36,R4; L647
    00000FC2 4D0B                   JSR         @R13
    00000FC4 0009                   NOP
    00000FC6 DA19                   MOV.L       L1142+40,R10; _GetKey
    00000FC8 9B1C                   MOV.W       L1142,R11  ; H'7542
    00000FCA 6CB3                   MOV         R11,R12
    00000FCC 9D1B                   MOV.W       L1142+2,R13; H'7547
    00000FCE 7CF0                   ADD         #-16,R12
    00000FD0 DE17                   MOV.L       L1142+44,R14; _Bdisp_AllClr_DDVRAM
      15062020.c   745        while (1){
    00000FD2              L1079:                            
      15062020.c   746            unsigned int key;       
      15062020.c   747            GetKey(&key);
    00000FD2 4A0B                   JSR         @R10
    00000FD4 64F3                   MOV         R15,R4
      15062020.c   748            if(KEY_CTRL_EXIT == key) {
    00000FD6 62F2                   MOV.L       @R15,R2
    00000FD8 32C0                   CMP/EQ      R12,R2
    00000FDA 8B03                   BF          L1080
      15062020.c   749                Bdisp_AllClr_DDVRAM();
    00000FDC 4E0B                   JSR         @R14
    00000FDE 0009                   NOP




SH SERIES C/C++ Compiler (Ver. 6.0C)                                                                 14-Jun-2020 13:18:49  PAGE   49


SCT OFFSET   CODE       C LABEL     INSTRUCTION OPERAND    COMMENT

      15062020.c   750                lf2menu();
    00000FE0 BED4                   BSR         _lf2menu
    00000FE2 0009                   NOP
    00000FE4              L1080:                            
      15062020.c   751            }
      15062020.c   752            if(KEY_CTRL_UP == key) {
    00000FE4 63F2                   MOV.L       @R15,R3
    00000FE6 33B0                   CMP/EQ      R11,R3
    00000FE8 8B03                   BF          L1081
      15062020.c   753                Bdisp_AllClr_DDVRAM();
    00000FEA 4E0B                   JSR         @R14
    00000FEC 0009                   NOP
      15062020.c   754                lf2menuitem1();
    00000FEE BF61                   BSR         _lf2menuitem1
    00000FF0 0009                   NOP
    00000FF2              L1081:                            
      15062020.c   755            }
      15062020.c   756            if(KEY_CTRL_DOWN == key) {
    00000FF2 62F2                   MOV.L       @R15,R2
    00000FF4 32D0                   CMP/EQ      R13,R2
    00000FF6 8BEC                   BF          L1079
      15062020.c   757                Bdisp_AllClr_DDVRAM();
    00000FF8 4E0B                   JSR         @R14
    00000FFA 0009                   NOP
      15062020.c   758                lf2menuitem1_2();
    00000FFC B01A                   BSR         _lf2menuitem1_2
    00000FFE 0009                   NOP
    00001000 AFE7                   BRA         L1079
    00001002 0009                   NOP
    00001004              L1142:                            
    00001004 7542                   .DATA.W     H'7542
    00001006 7547                   .DATA.W     H'7547
    00001008 <00000000>             .DATA.L     _locate
    0000100C <00000000>             .DATA.L     _Print
    00001010 <00000000>             .DATA.L     L641
    00001014 <00000000>             .DATA.L     L642
    00001018 <00000000>             .DATA.L     L643
    0000101C <00000000>             .DATA.L     L644
    00001020 <00000000>             .DATA.L     L645
    00001024 <00000000>             .DATA.L     L646
    00001028 <00000000>             .DATA.L     L647
    0000102C <00000000>             .DATA.L     _GetKey
    00001030 <00000000>             .DATA.L     _Bdisp_AllClr_DDVRAM
      15062020.c   759            }
      15062020.c   760        } 
      15062020.c   761    }
      15062020.c   762    int lf2menuitem1_2(){   
    00001034              _lf2menuitem1_2:                 ; function: lf2menuitem1_2
                                                           ; frame size=4
      15062020.c   763        locate(1,1);
    00001034 DE26                   MOV.L       L1143+4,R14; _locate
    00001036 E501                   MOV         #1,R5
    00001038 7FFC                   ADD         #-4,R15
    0000103A 4E0B                   JSR         @R14
    0000103C 6453                   MOV         R5,R4
      15062020.c   764        Print((unsigned char*)"Organisation 3/4");
    0000103E DD25                   MOV.L       L1143+8,R13; _Print




SH SERIES C/C++ Compiler (Ver. 6.0C)                                                                 14-Jun-2020 13:18:49  PAGE   50


SCT OFFSET   CODE       C LABEL     INSTRUCTION OPERAND    COMMENT

    00001040 D425                   MOV.L       L1143+12,R4; L655
    00001042 4D0B                   JSR         @R13
    00001044 0009                   NOP
      15062020.c   765        locate(1,2);
    00001046 E502                   MOV         #2,R5
    00001048 4E0B                   JSR         @R14
    0000104A E401                   MOV         #1,R4
      15062020.c   766        Print((unsigned char*)"-Klarheit");
    0000104C D423                   MOV.L       L1143+16,R4; L656
    0000104E 4D0B                   JSR         @R13
    00001050 0009                   NOP
      15062020.c   767        locate(2,3);
    00001052 E503                   MOV         #3,R5
    00001054 4E0B                   JSR         @R14
    00001056 E402                   MOV         #2,R4
      15062020.c   768        Print((unsigned char*)"T, A, Regelungen");
    00001058 D421                   MOV.L       L1143+20,R4; L643
    0000105A 4D0B                   JSR         @R13
    0000105C 0009                   NOP
      15062020.c   769        locate(2,4);
    0000105E E504                   MOV         #4,R5
    00001060 4E0B                   JSR         @R14
    00001062 E402                   MOV         #2,R4
      15062020.c   770        Print((unsigned char*)"sollten klar");
    00001064 D41F                   MOV.L       L1143+24,R4; L657
    00001066 4D0B                   JSR         @R13
    00001068 0009                   NOP
      15062020.c   771        locate(2,5);
    0000106A E505                   MOV         #5,R5
    0000106C 4E0B                   JSR         @R14
    0000106E E402                   MOV         #2,R4
      15062020.c   772        Print((unsigned char*)"definiert sein,");
    00001070 D41D                   MOV.L       L1143+28,R4; L658
    00001072 4D0B                   JSR         @R13
    00001074 0009                   NOP
      15062020.c   773        locate(2,6);
    00001076 E506                   MOV         #6,R5
    00001078 4E0B                   JSR         @R14
    0000107A E402                   MOV         #2,R4
      15062020.c   774        Print((unsigned char*)"damit jeder es");
    0000107C D41B                   MOV.L       L1143+32,R4; L659
    0000107E 4D0B                   JSR         @R13
    00001080 0009                   NOP
      15062020.c   775        locate(2,7);
    00001082 E507                   MOV         #7,R5
    00001084 4E0B                   JSR         @R14
    00001086 E402                   MOV         #2,R4
      15062020.c   776        Print((unsigned char*)"versteht.");
    00001088 D419                   MOV.L       L1143+36,R4; L660
    0000108A 4D0B                   JSR         @R13
    0000108C 0009                   NOP
    0000108E DA19                   MOV.L       L1143+40,R10; _GetKey
    00001090 9B1C                   MOV.W       L1143,R11  ; H'7542
    00001092 6CB3                   MOV         R11,R12
    00001094 9D1B                   MOV.W       L1143+2,R13; H'7547
    00001096 7CF0                   ADD         #-16,R12
    00001098 DE17                   MOV.L       L1143+44,R14; _Bdisp_AllClr_DDVRAM




SH SERIES C/C++ Compiler (Ver. 6.0C)                                                                 14-Jun-2020 13:18:49  PAGE   51


SCT OFFSET   CODE       C LABEL     INSTRUCTION OPERAND    COMMENT

      15062020.c   777        while (1){
    0000109A              L1084:                            
      15062020.c   778            unsigned int key;       
      15062020.c   779            GetKey(&key);
    0000109A 4A0B                   JSR         @R10
    0000109C 64F3                   MOV         R15,R4
      15062020.c   780            if(KEY_CTRL_EXIT == key) {
    0000109E 62F2                   MOV.L       @R15,R2
    000010A0 32C0                   CMP/EQ      R12,R2
    000010A2 8B03                   BF          L1085
      15062020.c   781                Bdisp_AllClr_DDVRAM();
    000010A4 4E0B                   JSR         @R14
    000010A6 0009                   NOP
      15062020.c   782                lf2menu();
    000010A8 BE70                   BSR         _lf2menu
    000010AA 0009                   NOP
    000010AC              L1085:                            
      15062020.c   783            }
      15062020.c   784            if(KEY_CTRL_UP == key) {
    000010AC 63F2                   MOV.L       @R15,R3
    000010AE 33B0                   CMP/EQ      R11,R3
    000010B0 8B03                   BF          L1086
      15062020.c   785                Bdisp_AllClr_DDVRAM();
    000010B2 4E0B                   JSR         @R14
    000010B4 0009                   NOP
      15062020.c   786                lf2menuitem1_1();
    000010B6 BF59                   BSR         _lf2menuitem1_1
    000010B8 0009                   NOP
    000010BA              L1086:                            
      15062020.c   787            }
      15062020.c   788            if(KEY_CTRL_DOWN == key) {
    000010BA 62F2                   MOV.L       @R15,R2
    000010BC 32D0                   CMP/EQ      R13,R2
    000010BE 8BEC                   BF          L1084
      15062020.c   789                Bdisp_AllClr_DDVRAM();
    000010C0 4E0B                   JSR         @R14
    000010C2 0009                   NOP
      15062020.c   790                lf2menuitem1_3();
    000010C4 B01A                   BSR         _lf2menuitem1_3
    000010C6 0009                   NOP
    000010C8 AFE7                   BRA         L1084
    000010CA 0009                   NOP
    000010CC              L1143:                            
    000010CC 7542                   .DATA.W     H'7542
    000010CE 7547                   .DATA.W     H'7547
    000010D0 <00000000>             .DATA.L     _locate
    000010D4 <00000000>             .DATA.L     _Print
    000010D8 <00000000>             .DATA.L     L655
    000010DC <00000000>             .DATA.L     L656
    000010E0 <00000000>             .DATA.L     L643
    000010E4 <00000000>             .DATA.L     L657
    000010E8 <00000000>             .DATA.L     L658
    000010EC <00000000>             .DATA.L     L659
    000010F0 <00000000>             .DATA.L     L660
    000010F4 <00000000>             .DATA.L     _GetKey
    000010F8 <00000000>             .DATA.L     _Bdisp_AllClr_DDVRAM
      15062020.c   791            }




SH SERIES C/C++ Compiler (Ver. 6.0C)                                                                 14-Jun-2020 13:18:49  PAGE   52


SCT OFFSET   CODE       C LABEL     INSTRUCTION OPERAND    COMMENT

      15062020.c   792        } 
      15062020.c   793    }
      15062020.c   794    int lf2menuitem1_3(){   
    000010FC              _lf2menuitem1_3:                 ; function: lf2menuitem1_3
                                                           ; frame size=4
      15062020.c   795        locate(1,1);
    000010FC DE42                   MOV.L       L1144+2,R14; _locate
    000010FE E501                   MOV         #1,R5
    00001100 7FFC                   ADD         #-4,R15
    00001102 4E0B                   JSR         @R14
    00001104 6453                   MOV         R5,R4
      15062020.c   796        Print((unsigned char*)"Organisation 4/4");
    00001106 DD41                   MOV.L       L1144+6,R13; _Print
    00001108 D441                   MOV.L       L1144+10,R4; L668
    0000110A 4D0B                   JSR         @R13
    0000110C 0009                   NOP
      15062020.c   797        locate(1,2);
    0000110E E502                   MOV         #2,R5
    00001110 4E0B                   JSR         @R14
    00001112 E401                   MOV         #1,R4
      15062020.c   798        Print((unsigned char*)"-Gleichgewicht");
    00001114 D43F                   MOV.L       L1144+14,R4; L669
    00001116 4D0B                   JSR         @R13
    00001118 0009                   NOP
      15062020.c   799        locate(2,3);
    0000111A E503                   MOV         #3,R5
    0000111C 4E0B                   JSR         @R14
    0000111E E402                   MOV         #2,R4
      15062020.c   800        Print((unsigned char*)"Dauerregel (Organ-");
    00001120 D43D                   MOV.L       L1144+18,R4; L670
    00001122 4D0B                   JSR         @R13
    00001124 0009                   NOP
      15062020.c   801        locate(2,4);
    00001126 E504                   MOV         #4,R5
    00001128 4E0B                   JSR         @R14
    0000112A E402                   MOV         #2,R4
      15062020.c   802        Print((unsigned char*)"isation), Einzel (");
    0000112C D43B                   MOV.L       L1144+22,R4; L671
    0000112E 4D0B                   JSR         @R13
    00001130 0009                   NOP
      15062020.c   803        locate(2,5);
    00001132 E505                   MOV         #5,R5
    00001134 4E0B                   JSR         @R14
    00001136 E402                   MOV         #2,R4
      15062020.c   804        Print((unsigned char*)"Disposition) u. ");
    00001138 D439                   MOV.L       L1144+26,R4; L672
    0000113A 4D0B                   JSR         @R13
    0000113C 0009                   NOP
      15062020.c   805        locate(2,6);
    0000113E E506                   MOV         #6,R5
    00001140 4E0B                   JSR         @R14
    00001142 E402                   MOV         #2,R4
      15062020.c   806        Print((unsigned char*)"Improvisation.");
    00001144 D437                   MOV.L       L1144+30,R4; L673
    00001146 4D0B                   JSR         @R13
    00001148 0009                   NOP
      15062020.c   807        locate(2,7);




SH SERIES C/C++ Compiler (Ver. 6.0C)                                                                 14-Jun-2020 13:18:49  PAGE   53


SCT OFFSET   CODE       C LABEL     INSTRUCTION OPERAND    COMMENT

    0000114A E507                   MOV         #7,R5
    0000114C 4E0B                   JSR         @R14
    0000114E E402                   MOV         #2,R4
      15062020.c   808        Print((unsigned char*)"unter/ueber-");
    00001150 D435                   MOV.L       L1144+34,R4; L674
    00001152 4D0B                   JSR         @R13
    00001154 0009                   NOP
      15062020.c   809        locate(2,8);
    00001156 E508                   MOV         #8,R5
    00001158 4E0B                   JSR         @R14
    0000115A E402                   MOV         #2,R4
      15062020.c   810        Print((unsigned char*)"organisation");
    0000115C D433                   MOV.L       L1144+38,R4; L675
    0000115E 4D0B                   JSR         @R13
    00001160 0009                   NOP
    00001162 DB33                   MOV.L       L1144+42,R11; _GetKey
    00001164 9C4F                   MOV.W       L1144,R12  ; H'7532
    00001166 6DC3                   MOV         R12,R13
    00001168 DE32                   MOV.L       L1144+46,R14; _Bdisp_AllClr_DDVRAM
    0000116A 7D10                   ADD         #16,R13
      15062020.c   811        while (1){
    0000116C              L1089:                            
      15062020.c   812            unsigned int key;       
      15062020.c   813            GetKey(&key);
    0000116C 4B0B                   JSR         @R11
    0000116E 64F3                   MOV         R15,R4
      15062020.c   814            if(KEY_CTRL_EXIT == key) {
    00001170 62F2                   MOV.L       @R15,R2
    00001172 32C0                   CMP/EQ      R12,R2
    00001174 8B03                   BF          L1090
      15062020.c   815                Bdisp_AllClr_DDVRAM();
    00001176 4E0B                   JSR         @R14
    00001178 0009                   NOP
      15062020.c   816                lf2menu();
    0000117A BE07                   BSR         _lf2menu
    0000117C 0009                   NOP
    0000117E              L1090:                            
      15062020.c   817            }
      15062020.c   818            if(KEY_CTRL_UP == key) {
    0000117E 63F2                   MOV.L       @R15,R3
    00001180 33D0                   CMP/EQ      R13,R3
    00001182 8BF3                   BF          L1089
      15062020.c   819                Bdisp_AllClr_DDVRAM();
    00001184 4E0B                   JSR         @R14
    00001186 0009                   NOP
      15062020.c   820                lf2menuitem1_2();
    00001188 BF54                   BSR         _lf2menuitem1_2
    0000118A 0009                   NOP
    0000118C AFEE                   BRA         L1089
    0000118E 0009                   NOP
      15062020.c   821            }
      15062020.c   822        } 
      15062020.c   823    }
      15062020.c   824    int lf2menuitem2(){   
    00001190              _lf2menuitem2:                   ; function: lf2menuitem2
                                                           ; frame size=4
      15062020.c   825        locate(1,1);




SH SERIES C/C++ Compiler (Ver. 6.0C)                                                                 14-Jun-2020 13:18:49  PAGE   54


SCT OFFSET   CODE       C LABEL     INSTRUCTION OPERAND    COMMENT

    00001190 DE1D                   MOV.L       L1144+2,R14; _locate
    00001192 E501                   MOV         #1,R5
    00001194 7FFC                   ADD         #-4,R15
    00001196 4E0B                   JSR         @R14
    00001198 6453                   MOV         R5,R4
      15062020.c   826        Print((unsigned char*)"Regelkreis");
    0000119A DD1C                   MOV.L       L1144+6,R13; _Print
    0000119C D426                   MOV.L       L1144+50,R4; L607
    0000119E 4D0B                   JSR         @R13
    000011A0 0009                   NOP
      15062020.c   827        locate(1,3);
    000011A2 E503                   MOV         #3,R5
    000011A4 4E0B                   JSR         @R14
    000011A6 E401                   MOV         #1,R4
      15062020.c   828        Print((unsigned char*)"Mitte: Kommunikation");
    000011A8 D424                   MOV.L       L1144+54,R4; L681
    000011AA 4D0B                   JSR         @R13
    000011AC 0009                   NOP
      15062020.c   829        locate(2,4);
    000011AE E504                   MOV         #4,R5
    000011B0 4E0B                   JSR         @R14
    000011B2 E402                   MOV         #2,R4
      15062020.c   830        Print((unsigned char*)"1) Zielsetzung");
    000011B4 D422                   MOV.L       L1144+58,R4; L682
    000011B6 4D0B                   JSR         @R13
    000011B8 0009                   NOP
      15062020.c   831        locate(2,5);
    000011BA E505                   MOV         #5,R5
    000011BC 4E0B                   JSR         @R14
    000011BE E402                   MOV         #2,R4
      15062020.c   832        Print((unsigned char*)"2) Planung");
    000011C0 D420                   MOV.L       L1144+62,R4; L683
    000011C2 4D0B                   JSR         @R13
    000011C4 0009                   NOP
      15062020.c   833        locate(2,6);
    000011C6 E506                   MOV         #6,R5
    000011C8 4E0B                   JSR         @R14
    000011CA E402                   MOV         #2,R4
      15062020.c   834        Print((unsigned char*)"3) Entscheidung");
    000011CC D41E                   MOV.L       L1144+66,R4; L684
    000011CE 4D0B                   JSR         @R13
    000011D0 0009                   NOP
      15062020.c   835        locate(2,7);
    000011D2 E507                   MOV         #7,R5
    000011D4 4E0B                   JSR         @R14
    000011D6 E402                   MOV         #2,R4
      15062020.c   836        Print((unsigned char*)"4) Umsetzung");
    000011D8 D41C                   MOV.L       L1144+70,R4; L685
    000011DA 4D0B                   JSR         @R13
    000011DC 0009                   NOP
      15062020.c   837        locate(2,8);
    000011DE E508                   MOV         #8,R5
    000011E0 4E0B                   JSR         @R14
    000011E2 E402                   MOV         #2,R4
      15062020.c   838        Print((unsigned char*)"5) Kontrolle");
    000011E4 D41A                   MOV.L       L1144+74,R4; L686
    000011E6 4D0B                   JSR         @R13




SH SERIES C/C++ Compiler (Ver. 6.0C)                                                                 14-Jun-2020 13:18:49  PAGE   55


SCT OFFSET   CODE       C LABEL     INSTRUCTION OPERAND    COMMENT

    000011E8 0009                   NOP
    000011EA DC12                   MOV.L       L1144+46,R12; _Bdisp_AllClr_DDVRAM
    000011EC DD10                   MOV.L       L1144+42,R13; _GetKey
    000011EE 9E0A                   MOV.W       L1144,R14  ; H'7532
      15062020.c   839        while (1){
    000011F0              L1093:                            
      15062020.c   840            unsigned int key;       
      15062020.c   841            GetKey(&key);
    000011F0 4D0B                   JSR         @R13
    000011F2 64F3                   MOV         R15,R4
      15062020.c   842            if(KEY_CTRL_EXIT == key) {
    000011F4 62F2                   MOV.L       @R15,R2
    000011F6 32E0                   CMP/EQ      R14,R2
    000011F8 8BFA                   BF          L1093
      15062020.c   843                Bdisp_AllClr_DDVRAM();
    000011FA 4C0B                   JSR         @R12
    000011FC 0009                   NOP
      15062020.c   844                lf2menu();
    000011FE BDC5                   BSR         _lf2menu
    00001200 0009                   NOP
    00001202 AFF5                   BRA         L1093
    00001204 0009                   NOP
    00001206              L1144:                            
    00001206 7532                   .DATA.W     H'7532
    00001208 <00000000>             .DATA.L     _locate
    0000120C <00000000>             .DATA.L     _Print
    00001210 <00000000>             .DATA.L     L668
    00001214 <00000000>             .DATA.L     L669
    00001218 <00000000>             .DATA.L     L670
    0000121C <00000000>             .DATA.L     L671
    00001220 <00000000>             .DATA.L     L672
    00001224 <00000000>             .DATA.L     L673
    00001228 <00000000>             .DATA.L     L674
    0000122C <00000000>             .DATA.L     L675
    00001230 <00000000>             .DATA.L     _GetKey
    00001234 <00000000>             .DATA.L     _Bdisp_AllClr_DDVRAM
    00001238 <00000000>             .DATA.L     L607
    0000123C <00000000>             .DATA.L     L681
    00001240 <00000000>             .DATA.L     L682
    00001244 <00000000>             .DATA.L     L683
    00001248 <00000000>             .DATA.L     L684
    0000124C <00000000>             .DATA.L     L685
    00001250 <00000000>             .DATA.L     L686
      15062020.c   845            }
      15062020.c   846        } 
      15062020.c   847    }
      15062020.c   848    int lf2menuitem3(){   
    00001254              _lf2menuitem3:                   ; function: lf2menuitem3
                                                           ; frame size=4
      15062020.c   849        locate(1,1);
    00001254 DE3F                   MOV.L       L1145+2,R14; _locate
    00001256 E501                   MOV         #1,R5
    00001258 7FFC                   ADD         #-4,R15
    0000125A 4E0B                   JSR         @R14
    0000125C 6453                   MOV         R5,R4
      15062020.c   850        Print((unsigned char*)"Organigramm");
    0000125E DD3E                   MOV.L       L1145+6,R13; _Print




SH SERIES C/C++ Compiler (Ver. 6.0C)                                                                 14-Jun-2020 13:18:49  PAGE   56


SCT OFFSET   CODE       C LABEL     INSTRUCTION OPERAND    COMMENT

    00001260 D43E                   MOV.L       L1145+10,R4; L608
    00001262 4D0B                   JSR         @R13
    00001264 0009                   NOP
      15062020.c   851        locate(1,3);
    00001266 E503                   MOV         #3,R5
    00001268 4E0B                   JSR         @R14
    0000126A E401                   MOV         #1,R4
      15062020.c   852        Print((unsigned char*)"[[]] Instanz");
    0000126C D43C                   MOV.L       L1145+14,R4; L691
    0000126E 4D0B                   JSR         @R13
    00001270 0009                   NOP
      15062020.c   853        locate(2,4);
    00001272 E504                   MOV         #4,R5
    00001274 4E0B                   JSR         @R14
    00001276 E402                   MOV         #2,R4
      15062020.c   854        Print((unsigned char*)"leitende Stelle");
    00001278 D43A                   MOV.L       L1145+18,R4; L692
    0000127A 4D0B                   JSR         @R13
    0000127C 0009                   NOP
      15062020.c   855        locate(1,5);
    0000127E E505                   MOV         #5,R5
    00001280 4E0B                   JSR         @R14
    00001282 E401                   MOV         #1,R4
      15062020.c   856        Print((unsigned char*)"[] Mitarbeiterstelle");
    00001284 D438                   MOV.L       L1145+22,R4; L693
    00001286 4D0B                   JSR         @R13
    00001288 0009                   NOP
      15062020.c   857        locate(2,6);
    0000128A E506                   MOV         #6,R5
    0000128C 4E0B                   JSR         @R14
    0000128E E402                   MOV         #2,R4
      15062020.c   858        Print((unsigned char*)"Ausfuhrendestelle");
    00001290 D436                   MOV.L       L1145+26,R4; L694
    00001292 4D0B                   JSR         @R13
    00001294 0009                   NOP
      15062020.c   859        locate(1,7);
    00001296 E507                   MOV         #7,R5
    00001298 4E0B                   JSR         @R14
    0000129A E401                   MOV         #1,R4
      15062020.c   860        Print((unsigned char*)"() Stabstelle");
    0000129C D434                   MOV.L       L1145+30,R4; L695
    0000129E 4D0B                   JSR         @R13
    000012A0 0009                   NOP
      15062020.c   861        locate(2,8);
    000012A2 E508                   MOV         #8,R5
    000012A4 4E0B                   JSR         @R14
    000012A6 E402                   MOV         #2,R4
      15062020.c   862        Print((unsigned char*)"Beratende Stelle");
    000012A8 D432                   MOV.L       L1145+34,R4; L696
    000012AA 4D0B                   JSR         @R13
    000012AC 0009                   NOP
    000012AE DC32                   MOV.L       L1145+38,R12; _Bdisp_AllClr_DDVRAM
    000012B0 DD32                   MOV.L       L1145+42,R13; _GetKey
    000012B2 9E4E                   MOV.W       L1145,R14  ; H'7532
      15062020.c   863        while (1){
    000012B4              L1096:                            
      15062020.c   864            unsigned int key;       




SH SERIES C/C++ Compiler (Ver. 6.0C)                                                                 14-Jun-2020 13:18:49  PAGE   57


SCT OFFSET   CODE       C LABEL     INSTRUCTION OPERAND    COMMENT

      15062020.c   865            GetKey(&key);
    000012B4 4D0B                   JSR         @R13
    000012B6 64F3                   MOV         R15,R4
      15062020.c   866            if(KEY_CTRL_EXIT == key) {
    000012B8 62F2                   MOV.L       @R15,R2
    000012BA 32E0                   CMP/EQ      R14,R2
    000012BC 8BFA                   BF          L1096
      15062020.c   867                Bdisp_AllClr_DDVRAM();
    000012BE 4C0B                   JSR         @R12
    000012C0 0009                   NOP
      15062020.c   868                lf2menu();
    000012C2 BD63                   BSR         _lf2menu
    000012C4 0009                   NOP
    000012C6 AFF5                   BRA         L1096
    000012C8 0009                   NOP
      15062020.c   869            }
      15062020.c   870        } 
      15062020.c   871    }
      15062020.c   872    int lf2menuitem4(){   
    000012CA              _lf2menuitem4:                   ; function: lf2menuitem4
                                                           ; frame size=4
    000012CA 7FFC                   ADD         #-4,R15
      15062020.c   873        locate(1,1);
    000012CC DE21                   MOV.L       L1145+2,R14; _locate
    000012CE E501                   MOV         #1,R5
    000012D0 4E0B                   JSR         @R14
    000012D2 6453                   MOV         R5,R4
      15062020.c   874        Print((unsigned char*)"ERP / SAP Systeme 1/");
    000012D4 DD20                   MOV.L       L1145+6,R13; _Print
    000012D6 D42A                   MOV.L       L1145+46,R4; L701
    000012D8 4D0B                   JSR         @R13
    000012DA 0009                   NOP
      15062020.c   875        locate(1,3);
    000012DC E503                   MOV         #3,R5
    000012DE 4E0B                   JSR         @R14
    000012E0 E401                   MOV         #1,R4
      15062020.c   876        Print((unsigned char*)"Merkmale:");
    000012E2 D428                   MOV.L       L1145+50,R4; L702
    000012E4 4D0B                   JSR         @R13
    000012E6 0009                   NOP
      15062020.c   877        locate(2,4);
    000012E8 E504                   MOV         #4,R5
    000012EA 4E0B                   JSR         @R14
    000012EC E402                   MOV         #2,R4
      15062020.c   878        Print((unsigned char*)"-dient der");
    000012EE D426                   MOV.L       L1145+54,R4; L703
    000012F0 4D0B                   JSR         @R13
    000012F2 0009                   NOP
      15062020.c   879        locate(3,5);
    000012F4 E505                   MOV         #5,R5
    000012F6 4E0B                   JSR         @R14
    000012F8 E403                   MOV         #3,R4
      15062020.c   880        Print((unsigned char*)"bearbeitung von");
    000012FA D424                   MOV.L       L1145+58,R4; L704
    000012FC 4D0B                   JSR         @R13
    000012FE 0009                   NOP
      15062020.c   881        locate(3,6);




SH SERIES C/C++ Compiler (Ver. 6.0C)                                                                 14-Jun-2020 13:18:49  PAGE   58


SCT OFFSET   CODE       C LABEL     INSTRUCTION OPERAND    COMMENT

    00001300 E506                   MOV         #6,R5
    00001302 4E0B                   JSR         @R14
    00001304 E403                   MOV         #3,R4
      15062020.c   882        Print((unsigned char*)"Geschaftsprozessen");
    00001306 D422                   MOV.L       L1145+62,R4; L705
    00001308 4D0B                   JSR         @R13
    0000130A 0009                   NOP
      15062020.c   883        locate(2,7);
    0000130C E507                   MOV         #7,R5
    0000130E 4E0B                   JSR         @R14
    00001310 E402                   MOV         #2,R4
      15062020.c   884        Print((unsigned char*)"-zentrale Datenbank");
    00001312 D420                   MOV.L       L1145+66,R4; L706
    00001314 4D0B                   JSR         @R13
    00001316 0009                   NOP
      15062020.c   885        locate(2,8);
    00001318 E508                   MOV         #8,R5
    0000131A 4E0B                   JSR         @R14
    0000131C E402                   MOV         #2,R4
      15062020.c   886        Print((unsigned char*)"-Stammdaten");
    0000131E D41E                   MOV.L       L1145+70,R4; L707
    00001320 4D0B                   JSR         @R13
    00001322 0009                   NOP
    00001324 DB15                   MOV.L       L1145+42,R11; _GetKey
    00001326 9C14                   MOV.W       L1145,R12  ; H'7532
    00001328 DE13                   MOV.L       L1145+38,R14; _Bdisp_AllClr_DDVRAM
    0000132A 6DC3                   MOV         R12,R13
    0000132C 7D15                   ADD         #21,R13
      15062020.c   887        while (1){
    0000132E              L1099:                            
      15062020.c   888            unsigned int key;       
      15062020.c   889            GetKey(&key);
    0000132E 4B0B                   JSR         @R11
    00001330 64F3                   MOV         R15,R4
      15062020.c   890            if(KEY_CTRL_EXIT == key) {
    00001332 62F2                   MOV.L       @R15,R2
    00001334 32C0                   CMP/EQ      R12,R2
    00001336 8B03                   BF          L1100
      15062020.c   891                Bdisp_AllClr_DDVRAM();
    00001338 4E0B                   JSR         @R14
    0000133A 0009                   NOP
      15062020.c   892                lf2menu();
    0000133C BD26                   BSR         _lf2menu
    0000133E 0009                   NOP
    00001340              L1100:                            
      15062020.c   893            }
      15062020.c   894            if(KEY_CTRL_DOWN == key) {
    00001340 63F2                   MOV.L       @R15,R3
    00001342 33D0                   CMP/EQ      R13,R3
    00001344 8BF3                   BF          L1099
      15062020.c   895                Bdisp_AllClr_DDVRAM();
    00001346 4E0B                   JSR         @R14
    00001348 0009                   NOP
      15062020.c   896                lf2menuitem4_1();
    0000134A B027                   BSR         _lf2menuitem4_1
    0000134C 0009                   NOP
    0000134E AFEE                   BRA         L1099




SH SERIES C/C++ Compiler (Ver. 6.0C)                                                                 14-Jun-2020 13:18:49  PAGE   59


SCT OFFSET   CODE       C LABEL     INSTRUCTION OPERAND    COMMENT

    00001350 0009                   NOP
    00001352              L1145:                            
    00001352 7532                   .DATA.W     H'7532
    00001354 <00000000>             .DATA.L     _locate
    00001358 <00000000>             .DATA.L     _Print
    0000135C <00000000>             .DATA.L     L608
    00001360 <00000000>             .DATA.L     L691
    00001364 <00000000>             .DATA.L     L692
    00001368 <00000000>             .DATA.L     L693
    0000136C <00000000>             .DATA.L     L694
    00001370 <00000000>             .DATA.L     L695
    00001374 <00000000>             .DATA.L     L696
    00001378 <00000000>             .DATA.L     _Bdisp_AllClr_DDVRAM
    0000137C <00000000>             .DATA.L     _GetKey
    00001380 <00000000>             .DATA.L     L701
    00001384 <00000000>             .DATA.L     L702
    00001388 <00000000>             .DATA.L     L703
    0000138C <00000000>             .DATA.L     L704
    00001390 <00000000>             .DATA.L     L705
    00001394 <00000000>             .DATA.L     L706
    00001398 <00000000>             .DATA.L     L707
      15062020.c   897            }
      15062020.c   898        } 
      15062020.c   899    }
      15062020.c   900    int lf2menuitem4_1(){   
    0000139C              _lf2menuitem4_1:                 ; function: lf2menuitem4_1
                                                           ; frame size=4
      15062020.c   901        locate(1,1);
    0000139C DE23                   MOV.L       L1146+4,R14; _locate
    0000139E E501                   MOV         #1,R5
    000013A0 7FFC                   ADD         #-4,R15
    000013A2 4E0B                   JSR         @R14
    000013A4 6453                   MOV         R5,R4
      15062020.c   902        Print((unsigned char*)"ERP / SAP Systeme 2/");
    000013A6 DD22                   MOV.L       L1146+8,R13; _Print
    000013A8 D422                   MOV.L       L1146+12,R4; L714
    000013AA 4D0B                   JSR         @R13
    000013AC 0009                   NOP
      15062020.c   903        locate(2,2);
    000013AE E502                   MOV         #2,R5
    000013B0 4E0B                   JSR         @R14
    000013B2 6453                   MOV         R5,R4
      15062020.c   904        Print((unsigned char*)"-Integration vertik");
    000013B4 D420                   MOV.L       L1146+16,R4; L715
    000013B6 4D0B                   JSR         @R13
    000013B8 0009                   NOP
      15062020.c   905        locate(3,3);
    000013BA E503                   MOV         #3,R5
    000013BC 4E0B                   JSR         @R14
    000013BE 6453                   MOV         R5,R4
      15062020.c   906        Print((unsigned char*)"ale/horizontale");
    000013C0 D41E                   MOV.L       L1146+20,R4; L716
    000013C2 4D0B                   JSR         @R13
    000013C4 0009                   NOP
      15062020.c   907        locate(2,4);
    000013C6 E504                   MOV         #4,R5
    000013C8 4E0B                   JSR         @R14




SH SERIES C/C++ Compiler (Ver. 6.0C)                                                                 14-Jun-2020 13:18:49  PAGE   60


SCT OFFSET   CODE       C LABEL     INSTRUCTION OPERAND    COMMENT

    000013CA E402                   MOV         #2,R4
      15062020.c   908        Print((unsigned char*)"-In vers Komponente");
    000013CC D41C                   MOV.L       L1146+24,R4; L717
    000013CE 4D0B                   JSR         @R13
    000013D0 0009                   NOP
      15062020.c   909        locate(3,5);
    000013D2 E505                   MOV         #5,R5
    000013D4 4E0B                   JSR         @R14
    000013D6 E403                   MOV         #3,R4
      15062020.c   910        Print((unsigned char*)"ausfgeteilt:");
    000013D8 D41A                   MOV.L       L1146+28,R4; L718
    000013DA 4D0B                   JSR         @R13
    000013DC 0009                   NOP
      15062020.c   911        locate(3,6);
    000013DE E506                   MOV         #6,R5
    000013E0 4E0B                   JSR         @R14
    000013E2 E403                   MOV         #3,R4
      15062020.c   912        Print((unsigned char*)"Vertrieb, ...");
    000013E4 D418                   MOV.L       L1146+32,R4; L719
    000013E6 4D0B                   JSR         @R13
    000013E8 0009                   NOP
    000013EA DA18                   MOV.L       L1146+36,R10; _GetKey
    000013EC 9B1C                   MOV.W       L1146,R11  ; H'7542
    000013EE 6CB3                   MOV         R11,R12
    000013F0 9D1B                   MOV.W       L1146+2,R13; H'7547
    000013F2 7CF0                   ADD         #-16,R12
    000013F4 DE16                   MOV.L       L1146+40,R14; _Bdisp_AllClr_DDVRAM
      15062020.c   913        while (1){
    000013F6              L1103:                            
      15062020.c   914            unsigned int key;       
      15062020.c   915            GetKey(&key);
    000013F6 4A0B                   JSR         @R10
    000013F8 64F3                   MOV         R15,R4
      15062020.c   916            if(KEY_CTRL_EXIT == key) {
    000013FA 62F2                   MOV.L       @R15,R2
    000013FC 32C0                   CMP/EQ      R12,R2
    000013FE 8B03                   BF          L1104
      15062020.c   917                Bdisp_AllClr_DDVRAM();
    00001400 4E0B                   JSR         @R14
    00001402 0009                   NOP
      15062020.c   918                lf2menu();
    00001404 BCC2                   BSR         _lf2menu
    00001406 0009                   NOP
    00001408              L1104:                            
      15062020.c   919            }
      15062020.c   920            if(KEY_CTRL_UP == key) {
    00001408 63F2                   MOV.L       @R15,R3
    0000140A 33B0                   CMP/EQ      R11,R3
    0000140C 8B03                   BF          L1105
      15062020.c   921                Bdisp_AllClr_DDVRAM();
    0000140E 4E0B                   JSR         @R14
    00001410 0009                   NOP
      15062020.c   922                lf2menuitem4();
    00001412 BF5A                   BSR         _lf2menuitem4
    00001414 0009                   NOP
    00001416              L1105:                            
      15062020.c   923            }




SH SERIES C/C++ Compiler (Ver. 6.0C)                                                                 14-Jun-2020 13:18:49  PAGE   61


SCT OFFSET   CODE       C LABEL     INSTRUCTION OPERAND    COMMENT

      15062020.c   924            if(KEY_CTRL_DOWN == key) {
    00001416 62F2                   MOV.L       @R15,R2
    00001418 32D0                   CMP/EQ      R13,R2
    0000141A 8BEC                   BF          L1103
      15062020.c   925                Bdisp_AllClr_DDVRAM();
    0000141C 4E0B                   JSR         @R14
    0000141E 0009                   NOP
      15062020.c   926                lf2menuitem4_2();
    00001420 B018                   BSR         _lf2menuitem4_2
    00001422 0009                   NOP
    00001424 AFE7                   BRA         L1103
    00001426 0009                   NOP
    00001428              L1146:                            
    00001428 7542                   .DATA.W     H'7542
    0000142A 7547                   .DATA.W     H'7547
    0000142C <00000000>             .DATA.L     _locate
    00001430 <00000000>             .DATA.L     _Print
    00001434 <00000000>             .DATA.L     L714
    00001438 <00000000>             .DATA.L     L715
    0000143C <00000000>             .DATA.L     L716
    00001440 <00000000>             .DATA.L     L717
    00001444 <00000000>             .DATA.L     L718
    00001448 <00000000>             .DATA.L     L719
    0000144C <00000000>             .DATA.L     _GetKey
    00001450 <00000000>             .DATA.L     _Bdisp_AllClr_DDVRAM
      15062020.c   927            }
      15062020.c   928        } 
      15062020.c   929    }
      15062020.c   930    int lf2menuitem4_2(){   
    00001454              _lf2menuitem4_2:                 ; function: lf2menuitem4_2
                                                           ; frame size=4
      15062020.c   931        locate(1,1);
    00001454 DE29                   MOV.L       L1147+4,R14; _locate
    00001456 E501                   MOV         #1,R5
    00001458 7FFC                   ADD         #-4,R15
    0000145A 4E0B                   JSR         @R14
    0000145C 6453                   MOV         R5,R4
      15062020.c   932        Print((unsigned char*)"ERP / SAP Systeme 3/");
    0000145E DD28                   MOV.L       L1147+8,R13; _Print
    00001460 D428                   MOV.L       L1147+12,R4; L727
    00001462 4D0B                   JSR         @R13
    00001464 0009                   NOP
      15062020.c   933        locate(1,3);
    00001466 E503                   MOV         #3,R5
    00001468 4E0B                   JSR         @R14
    0000146A E401                   MOV         #1,R4
      15062020.c   934        Print((unsigned char*)"Vorteile:");
    0000146C D426                   MOV.L       L1147+16,R4; L728
    0000146E 4D0B                   JSR         @R13
    00001470 0009                   NOP
      15062020.c   935        locate(2,4);
    00001472 E504                   MOV         #4,R5
    00001474 4E0B                   JSR         @R14
    00001476 E402                   MOV         #2,R4
      15062020.c   936        Print((unsigned char*)"-Verbesserung/Besc-");
    00001478 D424                   MOV.L       L1147+20,R4; L729
    0000147A 4D0B                   JSR         @R13




SH SERIES C/C++ Compiler (Ver. 6.0C)                                                                 14-Jun-2020 13:18:49  PAGE   62


SCT OFFSET   CODE       C LABEL     INSTRUCTION OPERAND    COMMENT

    0000147C 0009                   NOP
      15062020.c   937        locate(3,5);
    0000147E E505                   MOV         #5,R5
    00001480 4E0B                   JSR         @R14
    00001482 E403                   MOV         #3,R4
      15062020.c   938        Print((unsigned char*)"hleunigung von");
    00001484 D422                   MOV.L       L1147+24,R4; L730
    00001486 4D0B                   JSR         @R13
    00001488 0009                   NOP
      15062020.c   939        locate(3,6);
    0000148A E506                   MOV         #6,R5
    0000148C 4E0B                   JSR         @R14
    0000148E E403                   MOV         #3,R4
      15062020.c   940        Print((unsigned char*)"Prozessen");
    00001490 D420                   MOV.L       L1147+28,R4; L731
    00001492 4D0B                   JSR         @R13
    00001494 0009                   NOP
      15062020.c   941        locate(2,7);
    00001496 E507                   MOV         #7,R5
    00001498 4E0B                   JSR         @R14
    0000149A E402                   MOV         #2,R4
      15062020.c   942        Print((unsigned char*)"-Daten werden in");
    0000149C D41E                   MOV.L       L1147+32,R4; L732
    0000149E 4D0B                   JSR         @R13
    000014A0 0009                   NOP
      15062020.c   943        locate(3,7);
    000014A2 E507                   MOV         #7,R5
    000014A4 4E0B                   JSR         @R14
    000014A6 E403                   MOV         #3,R4
      15062020.c   944        Print((unsigned char*)"Echtzeit gesaved");
    000014A8 D41C                   MOV.L       L1147+36,R4; L733
    000014AA 4D0B                   JSR         @R13
    000014AC 0009                   NOP
      15062020.c   945        locate(3,8);
    000014AE E508                   MOV         #8,R5
    000014B0 4E0B                   JSR         @R14
    000014B2 E403                   MOV         #3,R4
      15062020.c   946        Print((unsigned char*)"alle haben Zugriff");
    000014B4 D41A                   MOV.L       L1147+40,R4; L734
    000014B6 4D0B                   JSR         @R13
    000014B8 0009                   NOP
    000014BA DA1A                   MOV.L       L1147+44,R10; _GetKey
    000014BC 9B1C                   MOV.W       L1147,R11  ; H'7542
    000014BE 6CB3                   MOV         R11,R12
    000014C0 9D1B                   MOV.W       L1147+2,R13; H'7547
    000014C2 7CF0                   ADD         #-16,R12
    000014C4 DE18                   MOV.L       L1147+48,R14; _Bdisp_AllClr_DDVRAM
      15062020.c   947        while (1){
    000014C6              L1108:                            
      15062020.c   948            unsigned int key;       
      15062020.c   949            GetKey(&key);
    000014C6 4A0B                   JSR         @R10
    000014C8 64F3                   MOV         R15,R4
      15062020.c   950            if(KEY_CTRL_EXIT == key) {
    000014CA 62F2                   MOV.L       @R15,R2
    000014CC 32C0                   CMP/EQ      R12,R2
    000014CE 8B03                   BF          L1109




SH SERIES C/C++ Compiler (Ver. 6.0C)                                                                 14-Jun-2020 13:18:49  PAGE   63


SCT OFFSET   CODE       C LABEL     INSTRUCTION OPERAND    COMMENT

      15062020.c   951                Bdisp_AllClr_DDVRAM();
    000014D0 4E0B                   JSR         @R14
    000014D2 0009                   NOP
      15062020.c   952                lf2menu();
    000014D4 BC5A                   BSR         _lf2menu
    000014D6 0009                   NOP
    000014D8              L1109:                            
      15062020.c   953            }
      15062020.c   954            if(KEY_CTRL_UP == key) {
    000014D8 63F2                   MOV.L       @R15,R3
    000014DA 33B0                   CMP/EQ      R11,R3
    000014DC 8B03                   BF          L1110
      15062020.c   955                Bdisp_AllClr_DDVRAM();
    000014DE 4E0B                   JSR         @R14
    000014E0 0009                   NOP
      15062020.c   956                lf2menuitem4_1();
    000014E2 BF5B                   BSR         _lf2menuitem4_1
    000014E4 0009                   NOP
    000014E6              L1110:                            
      15062020.c   957            }
      15062020.c   958            if(KEY_CTRL_DOWN == key) {
    000014E6 62F2                   MOV.L       @R15,R2
    000014E8 32D0                   CMP/EQ      R13,R2
    000014EA 8BEC                   BF          L1108
      15062020.c   959                Bdisp_AllClr_DDVRAM();
    000014EC 4E0B                   JSR         @R14
    000014EE 0009                   NOP
      15062020.c   960                lf2menuitem4_3();
    000014F0 B01C                   BSR         _lf2menuitem4_3
    000014F2 0009                   NOP
    000014F4 AFE7                   BRA         L1108
    000014F6 0009                   NOP
    000014F8              L1147:                            
    000014F8 7542                   .DATA.W     H'7542
    000014FA 7547                   .DATA.W     H'7547
    000014FC <00000000>             .DATA.L     _locate
    00001500 <00000000>             .DATA.L     _Print
    00001504 <00000000>             .DATA.L     L727
    00001508 <00000000>             .DATA.L     L728
    0000150C <00000000>             .DATA.L     L729
    00001510 <00000000>             .DATA.L     L730
    00001514 <00000000>             .DATA.L     L731
    00001518 <00000000>             .DATA.L     L732
    0000151C <00000000>             .DATA.L     L733
    00001520 <00000000>             .DATA.L     L734
    00001524 <00000000>             .DATA.L     _GetKey
    00001528 <00000000>             .DATA.L     _Bdisp_AllClr_DDVRAM
      15062020.c   961            }
      15062020.c   962        } 
      15062020.c   963    }
      15062020.c   964    int lf2menuitem4_3(){   
    0000152C              _lf2menuitem4_3:                 ; function: lf2menuitem4_3
                                                           ; frame size=4
      15062020.c   965        locate(1,1);
    0000152C DE40                   MOV.L       L1148+8,R14; _locate
    0000152E E501                   MOV         #1,R5
    00001530 7FFC                   ADD         #-4,R15




SH SERIES C/C++ Compiler (Ver. 6.0C)                                                                 14-Jun-2020 13:18:49  PAGE   64


SCT OFFSET   CODE       C LABEL     INSTRUCTION OPERAND    COMMENT

    00001532 4E0B                   JSR         @R14
    00001534 6453                   MOV         R5,R4
      15062020.c   966        Print((unsigned char*)"ERP / SAP Systeme 4/");
    00001536 DD3F                   MOV.L       L1148+12,R13; _Print
    00001538 D43F                   MOV.L       L1148+16,R4; L742
    0000153A 4D0B                   JSR         @R13
    0000153C 0009                   NOP
      15062020.c   967        locate(2,3);
    0000153E E503                   MOV         #3,R5
    00001540 4E0B                   JSR         @R14
    00001542 E402                   MOV         #2,R4
      15062020.c   968        Print((unsigned char*)"-Automatisiert pro-");
    00001544 D43D                   MOV.L       L1148+20,R4; L743
    00001546 4D0B                   JSR         @R13
    00001548 0009                   NOP
      15062020.c   969        locate(3,4);
    0000154A E504                   MOV         #4,R5
    0000154C 4E0B                   JSR         @R14
    0000154E E403                   MOV         #3,R4
      15062020.c   970        Print((unsigned char*)"zesse, gespart");
    00001550 D43B                   MOV.L       L1148+24,R4; L744
    00001552 4D0B                   JSR         @R13
    00001554 0009                   NOP
      15062020.c   971        locate(3,5);
    00001556 E505                   MOV         #5,R5
    00001558 4E0B                   JSR         @R14
    0000155A E403                   MOV         #3,R4
      15062020.c   972        Print((unsigned char*)"wird Arbeitsplatz");
    0000155C D439                   MOV.L       L1148+28,R4; L745
    0000155E 4D0B                   JSR         @R13
    00001560 0009                   NOP
    00001562 DA39                   MOV.L       L1148+32,R10; _GetKey
    00001564 9B60                   MOV.W       L1148,R11  ; H'7542
    00001566 6CB3                   MOV         R11,R12
    00001568 9D5F                   MOV.W       L1148+2,R13; H'7547
    0000156A 7CF0                   ADD         #-16,R12
    0000156C DE37                   MOV.L       L1148+36,R14; _Bdisp_AllClr_DDVRAM
      15062020.c   973        while (1){
    0000156E              L1113:                            
      15062020.c   974            unsigned int key;       
      15062020.c   975            GetKey(&key);
    0000156E 4A0B                   JSR         @R10
    00001570 64F3                   MOV         R15,R4
      15062020.c   976            if(KEY_CTRL_EXIT == key) {
    00001572 62F2                   MOV.L       @R15,R2
    00001574 32C0                   CMP/EQ      R12,R2
    00001576 8B03                   BF          L1114
      15062020.c   977                Bdisp_AllClr_DDVRAM();
    00001578 4E0B                   JSR         @R14
    0000157A 0009                   NOP
      15062020.c   978                lf2menu();
    0000157C BC06                   BSR         _lf2menu
    0000157E 0009                   NOP
    00001580              L1114:                            
      15062020.c   979            }
      15062020.c   980            if(KEY_CTRL_UP == key) {
    00001580 63F2                   MOV.L       @R15,R3




SH SERIES C/C++ Compiler (Ver. 6.0C)                                                                 14-Jun-2020 13:18:49  PAGE   65


SCT OFFSET   CODE       C LABEL     INSTRUCTION OPERAND    COMMENT

    00001582 33B0                   CMP/EQ      R11,R3
    00001584 8B03                   BF          L1115
      15062020.c   981                Bdisp_AllClr_DDVRAM();
    00001586 4E0B                   JSR         @R14
    00001588 0009                   NOP
      15062020.c   982                lf2menuitem4_2();
    0000158A BF63                   BSR         _lf2menuitem4_2
    0000158C 0009                   NOP
    0000158E              L1115:                            
      15062020.c   983            }
      15062020.c   984            if(KEY_CTRL_DOWN == key) {
    0000158E 62F2                   MOV.L       @R15,R2
    00001590 32D0                   CMP/EQ      R13,R2
    00001592 8BEC                   BF          L1113
      15062020.c   985                Bdisp_AllClr_DDVRAM();
    00001594 4E0B                   JSR         @R14
    00001596 0009                   NOP
      15062020.c   986                lf2menuitem4_4();
    00001598 B002                   BSR         _lf2menuitem4_4
    0000159A 0009                   NOP
    0000159C AFE7                   BRA         L1113
    0000159E 0009                   NOP
      15062020.c   987            }
      15062020.c   988        } 
      15062020.c   989    }
      15062020.c   990    int lf2menuitem4_4(){   
    000015A0              _lf2menuitem4_4:                 ; function: lf2menuitem4_4
                                                           ; frame size=4
      15062020.c   991        locate(1,1);
    000015A0 DE23                   MOV.L       L1148+8,R14; _locate
    000015A2 E501                   MOV         #1,R5
    000015A4 7FFC                   ADD         #-4,R15
    000015A6 4E0B                   JSR         @R14
    000015A8 6453                   MOV         R5,R4
      15062020.c   992        Print((unsigned char*)"ERP / SAP Systeme 5/");
    000015AA DD22                   MOV.L       L1148+12,R13; _Print
    000015AC D428                   MOV.L       L1148+40,R4; L753
    000015AE 4D0B                   JSR         @R13
    000015B0 0009                   NOP
      15062020.c   993        locate(1,3);
    000015B2 E503                   MOV         #3,R5
    000015B4 4E0B                   JSR         @R14
    000015B6 E401                   MOV         #1,R4
      15062020.c   994        Print((unsigned char*)"Nachteile:");
    000015B8 D426                   MOV.L       L1148+44,R4; L754
    000015BA 4D0B                   JSR         @R13
    000015BC 0009                   NOP
      15062020.c   995        locate(2,4);
    000015BE E504                   MOV         #4,R5
    000015C0 4E0B                   JSR         @R14
    000015C2 E402                   MOV         #2,R4
      15062020.c   996        Print((unsigned char*)"-Anschaffungskosten");
    000015C4 D424                   MOV.L       L1148+48,R4; L755
    000015C6 4D0B                   JSR         @R13
    000015C8 0009                   NOP
      15062020.c   997        locate(2,5);
    000015CA E505                   MOV         #5,R5




SH SERIES C/C++ Compiler (Ver. 6.0C)                                                                 14-Jun-2020 13:18:49  PAGE   66


SCT OFFSET   CODE       C LABEL     INSTRUCTION OPERAND    COMMENT

    000015CC 4E0B                   JSR         @R14
    000015CE E402                   MOV         #2,R4
      15062020.c   998        Print((unsigned char*)"-Abhaengigkeit");
    000015D0 D422                   MOV.L       L1148+52,R4; L756
    000015D2 4D0B                   JSR         @R13
    000015D4 0009                   NOP
      15062020.c   999        locate(2,6);
    000015D6 E506                   MOV         #6,R5
    000015D8 4E0B                   JSR         @R14
    000015DA E402                   MOV         #2,R4
      15062020.c  1000        Print((unsigned char*)"-hohe komplexitat");
    000015DC D420                   MOV.L       L1148+56,R4; L757
    000015DE 4D0B                   JSR         @R13
    000015E0 0009                   NOP
      15062020.c  1001        locate(2,7);
    000015E2 E507                   MOV         #7,R5
    000015E4 4E0B                   JSR         @R14
    000015E6 E402                   MOV         #2,R4
      15062020.c  1002        Print((unsigned char*)"-dauerhaft kontrol-");
    000015E8 D41E                   MOV.L       L1148+60,R4; L758
    000015EA 4D0B                   JSR         @R13
    000015EC 0009                   NOP
      15062020.c  1003        locate(3,7);
    000015EE E507                   MOV         #7,R5
    000015F0 4E0B                   JSR         @R14
    000015F2 E403                   MOV         #3,R4
      15062020.c  1004        Print((unsigned char*)"le der Mitarbeiter");
    000015F4 D41C                   MOV.L       L1148+64,R4; L759
    000015F6 4D0B                   JSR         @R13
    000015F8 0009                   NOP
    000015FA DB13                   MOV.L       L1148+32,R11; _GetKey
    000015FC 9C16                   MOV.W       L1148+4,R12; H'7532
    000015FE 6DC3                   MOV         R12,R13
    00001600 DE12                   MOV.L       L1148+36,R14; _Bdisp_AllClr_DDVRAM
    00001602 7D10                   ADD         #16,R13
      15062020.c  1005        while (1){
    00001604              L1118:                            
      15062020.c  1006            unsigned int key;       
      15062020.c  1007            GetKey(&key);
    00001604 4B0B                   JSR         @R11
    00001606 64F3                   MOV         R15,R4
      15062020.c  1008            if(KEY_CTRL_EXIT == key) {
    00001608 62F2                   MOV.L       @R15,R2
    0000160A 32C0                   CMP/EQ      R12,R2
    0000160C 8B03                   BF          L1119
      15062020.c  1009                Bdisp_AllClr_DDVRAM();
    0000160E 4E0B                   JSR         @R14
    00001610 0009                   NOP
      15062020.c  1010                lf2menu();
    00001612 BBBB                   BSR         _lf2menu
    00001614 0009                   NOP
    00001616              L1119:                            
      15062020.c  1011            }
      15062020.c  1012            if(KEY_CTRL_UP == key) {
    00001616 63F2                   MOV.L       @R15,R3
    00001618 33D0                   CMP/EQ      R13,R3
    0000161A 8BF3                   BF          L1118




SH SERIES C/C++ Compiler (Ver. 6.0C)                                                                 14-Jun-2020 13:18:49  PAGE   67


SCT OFFSET   CODE       C LABEL     INSTRUCTION OPERAND    COMMENT

      15062020.c  1013                Bdisp_AllClr_DDVRAM();
    0000161C 4E0B                   JSR         @R14
    0000161E 0009                   NOP
      15062020.c  1014                lf2menuitem4_3();
    00001620 BF84                   BSR         _lf2menuitem4_3
    00001622 0009                   NOP
    00001624 AFEE                   BRA         L1118
    00001626 0009                   NOP
    00001628              L1148:                            
    00001628 7542                   .DATA.W     H'7542
    0000162A 7547                   .DATA.W     H'7547
    0000162C 7532                   .DATA.W     H'7532
    0000162E 0000                   .DATA.W     0
    00001630 <00000000>             .DATA.L     _locate
    00001634 <00000000>             .DATA.L     _Print
    00001638 <00000000>             .DATA.L     L742
    0000163C <00000000>             .DATA.L     L743
    00001640 <00000000>             .DATA.L     L744
    00001644 <00000000>             .DATA.L     L745
    00001648 <00000000>             .DATA.L     _GetKey
    0000164C <00000000>             .DATA.L     _Bdisp_AllClr_DDVRAM
    00001650 <00000000>             .DATA.L     L753
    00001654 <00000000>             .DATA.L     L754
    00001658 <00000000>             .DATA.L     L755
    0000165C <00000000>             .DATA.L     L756
    00001660 <00000000>             .DATA.L     L757
    00001664 <00000000>             .DATA.L     L758
    00001668 <00000000>             .DATA.L     L759
      15062020.c  1015            }
      15062020.c  1016        } 
      15062020.c  1017    }
      15062020.c  1018    
      15062020.c  1019    
      15062020.c  1020    
      15062020.c  1021    //****************************************************************************
      15062020.c  1022    //**************                                              ****************
      15062020.c  1023    //**************                 Notice!                      ****************
      15062020.c  1024    //**************                                              ****************
      15062020.c  1025    //**************  Please do not change the following source.  ****************
      15062020.c  1026    //**************                                              ****************
      15062020.c  1027    //****************************************************************************
      15062020.c  1028    #pragma section _BR_Size
      15062020.c  1029    unsigned long BR_Size;
      15062020.c  1030    #pragma section
      15062020.c  1031    #pragma section _TOP
      15062020.c  1032    //****************************************************************************
      15062020.c  1033    //  InitializeSystem
      15062020.c  1034    //
      15062020.c  1035    //  param   :   isAppli   : 1 = Application / 0 = eActivity
      15062020.c  1036    //              OptionNum : Option Number (only eActivity)
      15062020.c  1037    //
      15062020.c  1038    //  retval  :   1 = No error / 0 = Error
      15062020.c  1039    //
      15062020.c  1040    //****************************************************************************
      15062020.c  1041    int InitializeSystem(int isAppli, unsigned short OptionNum){
P_T 00000000              _InitializeSystem:               ; function: InitializeSystem
                                                           ; frame size=0




SH SERIES C/C++ Compiler (Ver. 6.0C)                                                                 14-Jun-2020 13:18:49  PAGE   68


SCT OFFSET   CODE       C LABEL     INSTRUCTION OPERAND    COMMENT

      15062020.c  1042        return INIT_ADDIN_APPLICATION(isAppli, OptionNum);
    00000000 D301                   MOV.L       L1149+2,R3 ; _INIT_ADDIN_APPLICATION
    00000002 432B                   JMP         @R3
    00000004 0009                   NOP
    00000006              L1149:                            
    00000006 0000                   .DATA.W     0
    00000008 <00000000>             .DATA.L     _INIT_ADDIN_APPLICATION
      15062020.c  1043    }
      15062020.c  1044    #pragma section
D   00000000              _drmCheck:                       ; static: drmCheck
    00000000 00000000               .DATA.L     H'00000000
C   00000000              L352:
    00000000 <00000000>             .DATA.L     L353,L354,L355,L356,L357,L358
             <00000000>   
             <00000000>   
             <00000000>   
             <00000000>   
             <00000000>   
    00000018              L359:
    00000018 537069636B             .SDATA      "Spicker :D"
             6572203A44   
    00000022 00                     .DATA.B     H'00
    00000023 00000001               .RES.B      1
    00000024              L363:
    00000024 3E                     .SDATA      ">"
    00000025 00                     .DATA.B     H'00
    00000026 00000002               .RES.W      1
    00000028              L366:
    00000028 20                     .SDATA      " "
    00000029 00                     .DATA.B     H'00
    0000002A 00000002               .RES.W      1
    0000002C              L375:
    0000002C 5445535433             .SDATA      "TEST3"
    00000031 00                     .DATA.B     H'00
    00000032 00000002               .RES.W      1
    00000034              L377:
    00000034 5445535434             .SDATA      "TEST4"
    00000039 00                     .DATA.B     H'00
    0000003A 00000002               .RES.W      1
    0000003C              L379:
    0000003C 5445535435             .SDATA      "TEST5"
    00000041 00                     .DATA.B     H'00
    00000042 00000002               .RES.W      1
    00000044              L386:
    00000044 44524D                 .SDATA      "DRM"
    00000047 00                     .DATA.B     H'00
    00000048              L387:
    00000048 436F646520             .SDATA      "Code eingeben"
             65696E6765   
             62656E       
    00000055 00                     .DATA.B     H'00
    00000056 00000002               .RES.W      1
    00000058              L388:
    00000058 5B205D205B             .SDATA      "[ ] [ ] [ ]"
             205D205B20   
             5D           
    00000063 00                     .DATA.B     H'00




SH SERIES C/C++ Compiler (Ver. 6.0C)                                                                 14-Jun-2020 13:18:49  PAGE   69


SCT OFFSET   CODE       C LABEL     INSTRUCTION OPERAND    COMMENT

    00000064              L391:
    00000064 30                     .SDATA      "0"
    00000065 00                     .DATA.B     H'00
    00000066 00000002               .RES.W      1
    00000068              L393:
    00000068 31                     .SDATA      "1"
    00000069 00                     .DATA.B     H'00
    0000006A 00000002               .RES.W      1
    0000006C              L395:
    0000006C 32                     .SDATA      "2"
    0000006D 00                     .DATA.B     H'00
    0000006E 00000002               .RES.W      1
    00000070              L397:
    00000070 33                     .SDATA      "3"
    00000071 00                     .DATA.B     H'00
    00000072 00000002               .RES.W      1
    00000074              L399:
    00000074 34                     .SDATA      "4"
    00000075 00                     .DATA.B     H'00
    00000076 00000002               .RES.W      1
    00000078              L401:
    00000078 35                     .SDATA      "5"
    00000079 00                     .DATA.B     H'00
    0000007A 00000002               .RES.W      1
    0000007C              L403:
    0000007C 36                     .SDATA      "6"
    0000007D 00                     .DATA.B     H'00
    0000007E 00000002               .RES.W      1
    00000080              L405:
    00000080 37                     .SDATA      "7"
    00000081 00                     .DATA.B     H'00
    00000082 00000002               .RES.W      1
    00000084              L407:
    00000084 38                     .SDATA      "8"
    00000085 00                     .DATA.B     H'00
    00000086 00000002               .RES.W      1
    00000088              L409:
    00000088 39                     .SDATA      "9"
    00000089 00                     .DATA.B     H'00
    0000008A 00000002               .RES.W      1
    0000008C              L421:
    0000008C <00000000>             .DATA.L     L422,L423,L424,L425,L426
             <00000000>   
             <00000000>   
             <00000000>   
             <00000000>   
    000000A0              L447:
    000000A0 2D4D696E69             .SDATA      "-Minimal Prinzip"
             6D616C2050   
             72696E7A69   
             70           
    000000B0 00                     .DATA.B     H'00
    000000B1 00000001               .RES.B      1
    000000B2 00000002               .RES.W      1
    000000B4              L448:
    000000B4 566F726765             .SDATA      "Vorgegebenes Ziel"
             676562656E   




SH SERIES C/C++ Compiler (Ver. 6.0C)                                                                 14-Jun-2020 13:18:49  PAGE   70


SCT OFFSET   CODE       C LABEL     INSTRUCTION OPERAND    COMMENT

             6573205A69   
             656C         
    000000C5 00                     .DATA.B     H'00
    000000C6 00000002               .RES.W      1
    000000C8              L449:
    000000C8 77656E6967             .SDATA      "wenig Ausgaben"
             2041757367   
             6162656E     
    000000D6 00                     .DATA.B     H'00
    000000D7 00000001               .RES.B      1
    000000D8              L450:
    000000D8 2D4D617869             .SDATA      "-Maximal Prinzip"
             6D616C2050   
             72696E7A69   
             70           
    000000E8 00                     .DATA.B     H'00
    000000E9 00000001               .RES.B      1
    000000EA 00000002               .RES.W      1
    000000EC              L451:
    000000EC 45696E7361             .SDATA      "Einsatz vorgegeben"
             747A20766F   
             7267656765   
             62656E       
    000000FE 00                     .DATA.B     H'00
    000000FF 00000001               .RES.B      1
    00000100              L452:
    00000100 7669656C20             .SDATA      "viel Ziel erreichen"
             5A69656C20   
             6572726569   
             6368656E     
    00000113 00                     .DATA.B     H'00
    00000114              L457:
    00000114 5265636874             .SDATA      "Rechtsformen 1/2"
             73666F726D   
             656E20312F   
             32           
    00000124 00                     .DATA.B     H'00
    00000125 00000001               .RES.B      1
    00000126 00000002               .RES.W      1
    00000128              L458:
    00000128 506572736F             .SDATA      "Personengesellschaft"
             6E656E6765   
             73656C6C73   
             6368616674   
    0000013C 00                     .DATA.B     H'00
    0000013D 00000001               .RES.B      1
    0000013E 00000002               .RES.W      1
    00000140              L459:
    00000140 2D652E4B2E             .SDATA      "-e.K. eingetragener"
             2065696E67   
             6574726167   
             656E6572     
    00000153 00                     .DATA.B     H'00
    00000154              L460:
    00000154 4B6175666D             .SDATA      "Kaufmann"
             616E6E       
    0000015C 00                     .DATA.B     H'00




SH SERIES C/C++ Compiler (Ver. 6.0C)                                                                 14-Jun-2020 13:18:49  PAGE   71


SCT OFFSET   CODE       C LABEL     INSTRUCTION OPERAND    COMMENT

    0000015D 00000001               .RES.B      1
    0000015E 00000002               .RES.W      1
    00000160              L461:
    00000160 2D4F484720             .SDATA      "-OHG offene Handels-"
             6F6666656E   
             652048616E   
             64656C732D   
    00000174 00                     .DATA.B     H'00
    00000175 00000001               .RES.B      1
    00000176 00000002               .RES.W      1
    00000178              L462:
    00000178 676573656C             .SDATA      "gesellschaft"
             6C73636861   
             6674         
    00000184 00                     .DATA.B     H'00
    00000185 00000001               .RES.B      1
    00000186 00000002               .RES.W      1
    00000188              L463:
    00000188 2D4B67204B             .SDATA      "-Kg Kommandit-"
             6F6D6D616E   
             6469742D     
    00000196 00                     .DATA.B     H'00
    00000197 00000001               .RES.B      1
    00000198              L470:
    00000198 5265636874             .SDATA      "Rechtsformen 2/2"
             73666F726D   
             656E20322F   
             32           
    000001A8 00                     .DATA.B     H'00
    000001A9 00000001               .RES.B      1
    000001AA 00000002               .RES.W      1
    000001AC              L471:
    000001AC 4B61706974             .SDATA      "Kapitalgesellschaft"
             616C676573   
             656C6C7363   
             68616674     
    000001BF 00                     .DATA.B     H'00
    000001C0              L472:
    000001C0 2D476D6248             .SDATA      "-GmbH Gesellschaft"
             2047657365   
             6C6C736368   
             616674       
    000001D2 00                     .DATA.B     H'00
    000001D3 00000001               .RES.B      1
    000001D4              L473:
    000001D4 6D69742062             .SDATA      "mit beschrankter"
             6573636872   
             616E6B7465   
             72           
    000001E4 00                     .DATA.B     H'00
    000001E5 00000001               .RES.B      1
    000001E6 00000002               .RES.W      1
    000001E8              L474:
    000001E8 4861667475             .SDATA      "Haftung"
             6E67         
    000001EF 00                     .DATA.B     H'00
    000001F0              L475:




SH SERIES C/C++ Compiler (Ver. 6.0C)                                                                 14-Jun-2020 13:18:49  PAGE   72


SCT OFFSET   CODE       C LABEL     INSTRUCTION OPERAND    COMMENT

    000001F0 2D41472041             .SDATA      "-AG Aktien-"
             6B7469656E   
             2D           
    000001FB 00                     .DATA.B     H'00
    000001FC              L481:
    000001FC 2D4F48473A             .SDATA      "-OHG: 4% auf Kapital"
             2034252061   
             7566204B61   
             706974616C   
    00000210 00                     .DATA.B     H'00
    00000211 00000001               .RES.B      1
    00000212 00000002               .RES.W      1
    00000214              L482:
    00000214 45696E6C61             .SDATA      "Einlagen, Rest nach"
             67656E2C20   
             5265737420   
             6E616368     
    00000227 00                     .DATA.B     H'00
    00000228              L483:
    00000228 4B6F657066             .SDATA      "Koepfen."
             656E2E       
    00000230 00                     .DATA.B     H'00
    00000231 00000001               .RES.B      1
    00000232 00000002               .RES.W      1
    00000234              L484:
    00000234 2D4B473A20             .SDATA      "-KG: 4% auf Kapital"
             3425206175   
             66204B6170   
             6974616C     
    00000247 00                     .DATA.B     H'00
    00000248              L485:
    00000248 45696E6C61             .SDATA      "Einlagen, Rest im"
             67656E2C20   
             5265737420   
             696D         
    00000259 00                     .DATA.B     H'00
    0000025A 00000002               .RES.W      1
    0000025C              L486:
    0000025C 616E67656D             .SDATA      "angemessenen"
             657373656E   
             656E         
    00000268 00                     .DATA.B     H'00
    00000269 00000001               .RES.B      1
    0000026A 00000002               .RES.W      1
    0000026C              L487:
    0000026C 5665726861             .SDATA      "Verhaeltnissen"
             656C746E69   
             7373656E     
    0000027A 00                     .DATA.B     H'00
    0000027B 00000001               .RES.B      1
    0000027C              L492:
    0000027C 4861667475             .SDATA      "Haftung 1/5"
             6E6720312F   
             35           
    00000287 00                     .DATA.B     H'00
    00000288              L493:
    00000288 4B6F6D6D61             .SDATA      "Kommanditgesellschaf"




SH SERIES C/C++ Compiler (Ver. 6.0C)                                                                 14-Jun-2020 13:18:49  PAGE   73


SCT OFFSET   CODE       C LABEL     INSTRUCTION OPERAND    COMMENT

             6E64697467   
             6573656C6C   
             7363686166   
    0000029C 00                     .DATA.B     H'00
    0000029D 00000001               .RES.B      1
    0000029E 00000002               .RES.W      1
    000002A0              L494:
    000002A0 2D4B6F6D6D             .SDATA      "-Kommandist: Haftung"
             616E646973   
             743A204861   
             6674756E67   
    000002B4 00                     .DATA.B     H'00
    000002B5 00000001               .RES.B      1
    000002B6 00000002               .RES.W      1
    000002B8              L495:
    000002B8 6D69742065             .SDATA      "mit eingelargertem"
             696E67656C   
             6172676572   
             74656D       
    000002CA 00                     .DATA.B     H'00
    000002CB 00000001               .RES.B      1
    000002CC              L496:
    000002CC 4B61706974             .SDATA      "Kapital, keine"
             616C2C206B   
             65696E65     
    000002DA 00                     .DATA.B     H'00
    000002DB 00000001               .RES.B      1
    000002DC              L497:
    000002DC 4765736368             .SDATA      "Geschaftsfuhrung"
             6166747366   
             756872756E   
             67           
    000002EC 00                     .DATA.B     H'00
    000002ED 00000001               .RES.B      1
    000002EE 00000002               .RES.W      1
    000002F0              L498:
    000002F0 2D4B6F6D70             .SDATA      "-Komplimentaer"
             6C696D656E   
             74616572     
    000002FE 00                     .DATA.B     H'00
    000002FF 00000001               .RES.B      1
    00000300              L499:
    00000300 4861667475             .SDATA      "Haftung mit Kapital"
             6E67206D69   
             74204B6170   
             6974616C     
    00000313 00                     .DATA.B     H'00
    00000314              L506:
    00000314 4861667475             .SDATA      "Haftung 2/5"
             6E6720322F   
             35           
    0000031F 00                     .DATA.B     H'00
    00000320              L507:
    00000320 45696E6C61             .SDATA      "Einlagen und privat"
             67656E2075   
             6E64207072   
             69766174     




SH SERIES C/C++ Compiler (Ver. 6.0C)                                                                 14-Jun-2020 13:18:49  PAGE   74


SCT OFFSET   CODE       C LABEL     INSTRUCTION OPERAND    COMMENT

    00000333 00                     .DATA.B     H'00
    00000334              L508:
    00000334 4765736368             .SDATA      "Geschaftsfuhrer"
             6166747366   
             7568726572   
    00000343 00                     .DATA.B     H'00
    00000344              L509:
    00000344 4F6666656E             .SDATA      "Offene Handelsgesel."
             652048616E   
             64656C7367   
             6573656C2E   
    00000358 00                     .DATA.B     H'00
    00000359 00000001               .RES.B      1
    0000035A 00000002               .RES.W      1
    0000035C              L510:
    0000035C 2D756E6D69             .SDATA      "-unmittelbar ("
             7474656C62   
             61722028     
    0000036A 00                     .DATA.B     H'00
    0000036B 00000001               .RES.B      1
    0000036C              L511:
    0000036C 476C617562             .SDATA      "Glaubiger kann an"
             6967657220   
             6B616E6E20   
             616E         
    0000037D 00                     .DATA.B     H'00
    0000037E 00000002               .RES.W      1
    00000380              L512:
    00000380 476573656C             .SDATA      "Gesellschafter"
             6C73636861   
             66746572     
    0000038E 00                     .DATA.B     H'00
    0000038F 00000001               .RES.B      1
    00000390              L520:
    00000390 4861667475             .SDATA      "Haftung 3/5"
             6E6720332F   
             35           
    0000039B 00                     .DATA.B     H'00
    0000039C              L521:
    0000039C 686572616E             .SDATA      "herantreten und"
             7472657465   
             6E20756E64   
    000003AB 00                     .DATA.B     H'00
    000003AC              L522:
    000003AC 536368756C             .SDATA      "Schulden einfordern"
             64656E2065   
             696E666F72   
             6465726E     
    000003BF 00                     .DATA.B     H'00
    000003C0              L523:
    000003C0 2D756E6265             .SDATA      "-unbeschrankt ("
             7363687261   
             6E6B742028   
    000003CF 00                     .DATA.B     H'00
    000003D0              L524:
    000003D0 7072697661             .SDATA      "privat+Gesellschaft"
             742B476573   




SH SERIES C/C++ Compiler (Ver. 6.0C)                                                                 14-Jun-2020 13:18:49  PAGE   75


SCT OFFSET   CODE       C LABEL     INSTRUCTION OPERAND    COMMENT

             656C6C7363   
             68616674     
    000003E3 00                     .DATA.B     H'00
    000003E4              L525:
    000003E4 7665726D6F             .SDATA      "vermoegen)"
             6567656E29   
    000003EE 00                     .DATA.B     H'00
    000003EF 00000001               .RES.B      1
    000003F0              L526:
    000003F0 2D536F6C69             .SDATA      "-Solidarisch ("
             6461726973   
             63682028     
    000003FE 00                     .DATA.B     H'00
    000003FF 00000001               .RES.B      1
    00000400              L527:
    00000400 67656D6569             .SDATA      "gemeinsame Haftung"
             6E73616D65   
             2048616674   
             756E67       
    00000412 00                     .DATA.B     H'00
    00000413 00000001               .RES.B      1
    00000414              L535:
    00000414 4861667475             .SDATA      "Haftung 4/5"
             6E6720342F   
             35           
    0000041F 00                     .DATA.B     H'00
    00000420              L536:
    00000420 696E20616C             .SDATA      "in alle fuer einen"
             6C65206675   
             6572206569   
             6E656E       
    00000432 00                     .DATA.B     H'00
    00000433 00000001               .RES.B      1
    00000434              L537:
    00000434 4D75736B65             .SDATA      "Musketierprinzip)"
             7469657270   
             72696E7A69   
             7029         
    00000445 00                     .DATA.B     H'00
    00000446 00000002               .RES.W      1
    00000448              L538:
    00000448 476D624820             .SDATA      "GmbH (Grundungs-"
             284772756E   
             64756E6773   
             2D           
    00000458 00                     .DATA.B     H'00
    00000459 00000001               .RES.B      1
    0000045A 00000002               .RES.W      1
    0000045C              L539:
    0000045C 6B61706974             .SDATA      "kapital 25.000Eur,"
             616C203235   
             2E30303045   
             75722C       
    0000046E 00                     .DATA.B     H'00
    0000046F 00000001               .RES.B      1
    00000470              L540:
    00000470 6E61636820             .SDATA      "nach Anteilen am"




SH SERIES C/C++ Compiler (Ver. 6.0C)                                                                 14-Jun-2020 13:18:49  PAGE   76


SCT OFFSET   CODE       C LABEL     INSTRUCTION OPERAND    COMMENT

             416E746569   
             6C656E2061   
             6D           
    00000480 00                     .DATA.B     H'00
    00000481 00000001               .RES.B      1
    00000482 00000002               .RES.W      1
    00000484              L548:
    00000484 4861667475             .SDATA      "Haftung 5/5"
             6E6720352F   
             35           
    0000048F 00                     .DATA.B     H'00
    00000490              L549:
    00000490 476573616D             .SDATA      "Gesamtvermoegen)"
             747665726D   
             6F6567656E   
             29           
    000004A0 00                     .DATA.B     H'00
    000004A1 00000001               .RES.B      1
    000004A2 00000002               .RES.W      1
    000004A4              L550:
    000004A4 2D41472028             .SDATA      "-AG (Grundungs-"
             4772756E64   
             756E67732D   
    000004B3 00                     .DATA.B     H'00
    000004B4              L551:
    000004B4 6B61706974             .SDATA      "kapital 50.000Eur,"
             616C203530   
             2E30303045   
             75722C       
    000004C6 00                     .DATA.B     H'00
    000004C7 00000001               .RES.B      1
    000004C8              L552:
    000004C8 4469766964             .SDATA      "Dividenden, Kurs-"
             656E64656E   
             2C204B7572   
             732D         
    000004D9 00                     .DATA.B     H'00
    000004DA 00000002               .RES.W      1
    000004DC              L553:
    000004DC 676577696E             .SDATA      "gewinne, Anteile)"
             6E652C2041   
             6E7465696C   
             6529         
    000004ED 00                     .DATA.B     H'00
    000004EE 00000002               .RES.W      1
    000004F0              L559:
    000004F0 5072656973             .SDATA      "Preisbildungs... 1/3"
             62696C6475   
             6E67732E2E   
             2E20312F33   
    00000504 00                     .DATA.B     H'00
    00000505 00000001               .RES.B      1
    00000506 00000002               .RES.W      1
    00000508              L560:
    00000508 2D4D61726B             .SDATA      "-Markt"
             74           
    0000050E 00                     .DATA.B     H'00




SH SERIES C/C++ Compiler (Ver. 6.0C)                                                                 14-Jun-2020 13:18:49  PAGE   77


SCT OFFSET   CODE       C LABEL     INSTRUCTION OPERAND    COMMENT

    0000050F 00000001               .RES.B      1
    00000510              L561:
    00000510 416E676562             .SDATA      "Angebot<->Nachfrage"
             6F743C2D3E   
             4E61636866   
             72616765     
    00000523 00                     .DATA.B     H'00
    00000524              L562:
    00000524 446572204D             .SDATA      "Der Markt wird"
             61726B7420   
             77697264     
    00000532 00                     .DATA.B     H'00
    00000533 00000001               .RES.B      1
    00000534              L563:
    00000534 4D69746869             .SDATA      "Mithilfe eines"
             6C66652065   
             696E6573     
    00000542 00                     .DATA.B     H'00
    00000543 00000001               .RES.B      1
    00000544              L564:
    00000544 4D6F64656C             .SDATA      "Modells vereinfacht"
             6C73207665   
             7265696E66   
             61636874     
    00000557 00                     .DATA.B     H'00
    00000558              L565:
    00000558 6461726765             .SDATA      "dargestellt:"
             7374656C6C   
             743A         
    00000564 00                     .DATA.B     H'00
    00000565 00000001               .RES.B      1
    00000566 00000002               .RES.W      1
    00000568              L566:
    00000568 766F6C6C6B             .SDATA      "vollkommener Markt"
             6F6D6D656E   
             6572204D61   
             726B74       
    0000057A 00                     .DATA.B     H'00
    0000057B 00000001               .RES.B      1
    0000057C              L573:
    0000057C 5072656973             .SDATA      "Preisbildungs... 2/3"
             62696C6475   
             6E67732E2E   
             2E20322F33   
    00000590 00                     .DATA.B     H'00
    00000591 00000001               .RES.B      1
    00000592 00000002               .RES.W      1
    00000594              L574:
    00000594 5265616C69             .SDATA      "Realitat:"
             7461743A     
    0000059D 00                     .DATA.B     H'00
    0000059E 00000002               .RES.W      1
    000005A0              L575:
    000005A0 756E766F6C             .SDATA      "unvollkomm. Markt"
             6C6B6F6D6D   
             2E204D6172   
             6B74         




SH SERIES C/C++ Compiler (Ver. 6.0C)                                                                 14-Jun-2020 13:18:49  PAGE   78


SCT OFFSET   CODE       C LABEL     INSTRUCTION OPERAND    COMMENT

    000005B1 00                     .DATA.B     H'00
    000005B2 00000002               .RES.W      1
    000005B4              L576:
    000005B4 416E676562             .SDATA      "Angebotskurve"
             6F74736B75   
             727665       
    000005C1 00                     .DATA.B     H'00
    000005C2 00000002               .RES.W      1
    000005C4              L577:
    000005C4 312920416E             .SDATA      "1) Angebotskurve"
             6765626F74   
             736B757276   
             65           
    000005D4 00                     .DATA.B     H'00
    000005D5 00000001               .RES.B      1
    000005D6 00000002               .RES.W      1
    000005D8              L578:
    000005D8 3229204B61             .SDATA      "2) Kaufermarkt"
             756665726D   
             61726B74     
    000005E6 00                     .DATA.B     H'00
    000005E7 00000001               .RES.B      1
    000005E8              L579:
    000005E8 332920476C             .SDATA      "3) Gleichgew.spreis"
             6569636867   
             65772E7370   
             72656973     
    000005FB 00                     .DATA.B     H'00
    000005FC              L587:
    000005FC 5072656973             .SDATA      "Preisbildungs... 3/3"
             62696C6475   
             6E67732E2E   
             2E20332F33   
    00000610 00                     .DATA.B     H'00
    00000611 00000001               .RES.B      1
    00000612 00000002               .RES.W      1
    00000614              L588:
    00000614 3429205665             .SDATA      "4) Verkaufermarkt"
             726B617566   
             65726D6172   
             6B74         
    00000625 00                     .DATA.B     H'00
    00000626 00000002               .RES.W      1
    00000628              L589:
    00000628 3529204E61             .SDATA      "5) Nachfragekurve"
             6368667261   
             67656B7572   
             7665         
    00000639 00                     .DATA.B     H'00
    0000063A 00000002               .RES.W      1
    0000063C              L590:
    0000063C 58203D2035             .SDATA      "X = 50Eur, 350Stk."
             304575722C   
             2033353053   
             746B2E       
    0000064E 00                     .DATA.B     H'00
    0000064F 00000001               .RES.B      1




SH SERIES C/C++ Compiler (Ver. 6.0C)                                                                 14-Jun-2020 13:18:49  PAGE   79


SCT OFFSET   CODE       C LABEL     INSTRUCTION OPERAND    COMMENT

    00000650              L591:
    00000650 5669656C20             .SDATA      "Viel Umsatz=50Eur."
             556D736174   
             7A3D353045   
             75722E       
    00000662 00                     .DATA.B     H'00
    00000663 00000001               .RES.B      1
    00000664              L592:
    00000664 5669656C20             .SDATA      "Viel Umsatz=350Stk."
             556D736174   
             7A3D333530   
             53746B2E     
    00000677 00                     .DATA.B     H'00
    00000678              L593:
    00000678 556D61783D             .SDATA      "Umax=50E*350S=17,5k"
             3530452A33   
             3530533D31   
             372C356B     
    0000068B 00                     .DATA.B     H'00
    0000068C              L605:
    0000068C <00000000>             .DATA.L     L606,L607,L608,L609
             <00000000>   
             <00000000>   
             <00000000>   
    0000069C              L628:
    0000069C 4F7267616E             .SDATA      "Organisation 1/4"
             6973617469   
             6F6E20312F   
             34           
    000006AC 00                     .DATA.B     H'00
    000006AD 00000001               .RES.B      1
    000006AE 00000002               .RES.W      1
    000006B0              L629:
    000006B0 2D5A776563             .SDATA      "-Zweckmassigkeit"
             6B6D617373   
             69676B6569   
             74           
    000006C0 00                     .DATA.B     H'00
    000006C1 00000001               .RES.B      1
    000006C2 00000002               .RES.W      1
    000006C4              L630:
    000006C4 4175666761             .SDATA      "Aufgab./Tatigkeiten"
             622E2F5461   
             7469676B65   
             6974656E     
    000006D7 00                     .DATA.B     H'00
    000006D8              L631:
    000006D8 736F6C6C74             .SDATA      "sollten dem"
             656E206465   
             6D           
    000006E3 00                     .DATA.B     H'00
    000006E4              L632:
    000006E4 556E746572             .SDATA      "Unternehmensziel"
             6E65686D65   
             6E737A6965   
             6C           
    000006F4 00                     .DATA.B     H'00




SH SERIES C/C++ Compiler (Ver. 6.0C)                                                                 14-Jun-2020 13:18:49  PAGE   80


SCT OFFSET   CODE       C LABEL     INSTRUCTION OPERAND    COMMENT

    000006F5 00000001               .RES.B      1
    000006F6 00000002               .RES.W      1
    000006F8              L633:
    000006F8 656E747370             .SDATA      "entsprechen alles"
             7265636865   
             6E20616C6C   
             6573         
    00000709 00                     .DATA.B     H'00
    0000070A 00000002               .RES.W      1
    0000070C              L634:
    0000070C 616E646572             .SDATA      "andere ist unzweck."
             6520697374   
             20756E7A77   
             65636B2E     
    0000071F 00                     .DATA.B     H'00
    00000720              L641:
    00000720 4F7267616E             .SDATA      "Organisation 2/4"
             6973617469   
             6F6E20322F   
             34           
    00000730 00                     .DATA.B     H'00
    00000731 00000001               .RES.B      1
    00000732 00000002               .RES.W      1
    00000734              L642:
    00000734 2D57697274             .SDATA      "-Wirtschaftlichkeit"
             7363686166   
             746C696368   
             6B656974     
    00000747 00                     .DATA.B     H'00
    00000748              L643:
    00000748 542C20412C             .SDATA      "T, A, Regelungen"
             2052656765   
             6C756E6765   
             6E           
    00000758 00                     .DATA.B     H'00
    00000759 00000001               .RES.B      1
    0000075A 00000002               .RES.W      1
    0000075C              L644:
    0000075C 736F6C6C74             .SDATA      "sollten dem oko-"
             656E206465   
             6D206F6B6F   
             2D           
    0000076C 00                     .DATA.B     H'00
    0000076D 00000001               .RES.B      1
    0000076E 00000002               .RES.W      1
    00000770              L645:
    00000770 6C6F676973             .SDATA      "logischem Prinzip"
             6368656D20   
             5072696E7A   
             6970         
    00000781 00                     .DATA.B     H'00
    00000782 00000002               .RES.W      1
    00000784              L646:
    00000784 656E747370             .SDATA      "entsprechen. Bsp.:"
             7265636865   
             6E2E204273   
             702E3A       




SH SERIES C/C++ Compiler (Ver. 6.0C)                                                                 14-Jun-2020 13:18:49  PAGE   81


SCT OFFSET   CODE       C LABEL     INSTRUCTION OPERAND    COMMENT

    00000796 00                     .DATA.B     H'00
    00000797 00000001               .RES.B      1
    00000798              L647:
    00000798 4D696E2E20             .SDATA      "Min. Max. Prinzip"
             4D61782E20   
             5072696E7A   
             6970         
    000007A9 00                     .DATA.B     H'00
    000007AA 00000002               .RES.W      1
    000007AC              L655:
    000007AC 4F7267616E             .SDATA      "Organisation 3/4"
             6973617469   
             6F6E20332F   
             34           
    000007BC 00                     .DATA.B     H'00
    000007BD 00000001               .RES.B      1
    000007BE 00000002               .RES.W      1
    000007C0              L656:
    000007C0 2D4B6C6172             .SDATA      "-Klarheit"
             68656974     
    000007C9 00                     .DATA.B     H'00
    000007CA 00000002               .RES.W      1
    000007CC              L657:
    000007CC 736F6C6C74             .SDATA      "sollten klar"
             656E206B6C   
             6172         
    000007D8 00                     .DATA.B     H'00
    000007D9 00000001               .RES.B      1
    000007DA 00000002               .RES.W      1
    000007DC              L658:
    000007DC 646566696E             .SDATA      "definiert sein,"
             6965727420   
             7365696E2C   
    000007EB 00                     .DATA.B     H'00
    000007EC              L659:
    000007EC 64616D6974             .SDATA      "damit jeder es"
             206A656465   
             72206573     
    000007FA 00                     .DATA.B     H'00
    000007FB 00000001               .RES.B      1
    000007FC              L660:
    000007FC 7665727374             .SDATA      "versteht."
             6568742E     
    00000805 00                     .DATA.B     H'00
    00000806 00000002               .RES.W      1
    00000808              L668:
    00000808 4F7267616E             .SDATA      "Organisation 4/4"
             6973617469   
             6F6E20342F   
             34           
    00000818 00                     .DATA.B     H'00
    00000819 00000001               .RES.B      1
    0000081A 00000002               .RES.W      1
    0000081C              L669:
    0000081C 2D476C6569             .SDATA      "-Gleichgewicht"
             6368676577   
             69636874     




SH SERIES C/C++ Compiler (Ver. 6.0C)                                                                 14-Jun-2020 13:18:49  PAGE   82


SCT OFFSET   CODE       C LABEL     INSTRUCTION OPERAND    COMMENT

    0000082A 00                     .DATA.B     H'00
    0000082B 00000001               .RES.B      1
    0000082C              L670:
    0000082C 4461756572             .SDATA      "Dauerregel (Organ-"
             726567656C   
             20284F7267   
             616E2D       
    0000083E 00                     .DATA.B     H'00
    0000083F 00000001               .RES.B      1
    00000840              L671:
    00000840 6973617469             .SDATA      "isation), Einzel ("
             6F6E292C20   
             45696E7A65   
             6C2028       
    00000852 00                     .DATA.B     H'00
    00000853 00000001               .RES.B      1
    00000854              L672:
    00000854 446973706F             .SDATA      "Disposition) u. "
             736974696F   
             6E2920752E   
             20           
    00000864 00                     .DATA.B     H'00
    00000865 00000001               .RES.B      1
    00000866 00000002               .RES.W      1
    00000868              L673:
    00000868 496D70726F             .SDATA      "Improvisation."
             7669736174   
             696F6E2E     
    00000876 00                     .DATA.B     H'00
    00000877 00000001               .RES.B      1
    00000878              L674:
    00000878 756E746572             .SDATA      "unter/ueber-"
             2F75656265   
             722D         
    00000884 00                     .DATA.B     H'00
    00000885 00000001               .RES.B      1
    00000886 00000002               .RES.W      1
    00000888              L675:
    00000888 6F7267616E             .SDATA      "organisation"
             6973617469   
             6F6E         
    00000894 00                     .DATA.B     H'00
    00000895 00000001               .RES.B      1
    00000896 00000002               .RES.W      1
    00000898              L681:
    00000898 4D69747465             .SDATA      "Mitte: Kommunikation"
             3A204B6F6D   
             6D756E696B   
             6174696F6E   
    000008AC 00                     .DATA.B     H'00
    000008AD 00000001               .RES.B      1
    000008AE 00000002               .RES.W      1
    000008B0              L682:
    000008B0 3129205A69             .SDATA      "1) Zielsetzung"
             656C736574   
             7A756E67     
    000008BE 00                     .DATA.B     H'00




SH SERIES C/C++ Compiler (Ver. 6.0C)                                                                 14-Jun-2020 13:18:49  PAGE   83


SCT OFFSET   CODE       C LABEL     INSTRUCTION OPERAND    COMMENT

    000008BF 00000001               .RES.B      1
    000008C0              L683:
    000008C0 322920506C             .SDATA      "2) Planung"
             616E756E67   
    000008CA 00                     .DATA.B     H'00
    000008CB 00000001               .RES.B      1
    000008CC              L684:
    000008CC 332920456E             .SDATA      "3) Entscheidung"
             7473636865   
             6964756E67   
    000008DB 00                     .DATA.B     H'00
    000008DC              L685:
    000008DC 342920556D             .SDATA      "4) Umsetzung"
             7365747A75   
             6E67         
    000008E8 00                     .DATA.B     H'00
    000008E9 00000001               .RES.B      1
    000008EA 00000002               .RES.W      1
    000008EC              L686:
    000008EC 3529204B6F             .SDATA      "5) Kontrolle"
             6E74726F6C   
             6C65         
    000008F8 00                     .DATA.B     H'00
    000008F9 00000001               .RES.B      1
    000008FA 00000002               .RES.W      1
    000008FC              L691:
    000008FC 5B5B5D5D20             .SDATA      "[[]] Instanz"
             496E737461   
             6E7A         
    00000908 00                     .DATA.B     H'00
    00000909 00000001               .RES.B      1
    0000090A 00000002               .RES.W      1
    0000090C              L692:
    0000090C 6C65697465             .SDATA      "leitende Stelle"
             6E64652053   
             74656C6C65   
    0000091B 00                     .DATA.B     H'00
    0000091C              L693:
    0000091C 5B5D204D69             .SDATA      "[] Mitarbeiterstelle"
             7461726265   
             6974657273   
             74656C6C65   
    00000930 00                     .DATA.B     H'00
    00000931 00000001               .RES.B      1
    00000932 00000002               .RES.W      1
    00000934              L694:
    00000934 4175736675             .SDATA      "Ausfuhrendestelle"
             6872656E64   
             657374656C   
             6C65         
    00000945 00                     .DATA.B     H'00
    00000946 00000002               .RES.W      1
    00000948              L695:
    00000948 2829205374             .SDATA      "() Stabstelle"
             6162737465   
             6C6C65       
    00000955 00                     .DATA.B     H'00




SH SERIES C/C++ Compiler (Ver. 6.0C)                                                                 14-Jun-2020 13:18:49  PAGE   84


SCT OFFSET   CODE       C LABEL     INSTRUCTION OPERAND    COMMENT

    00000956 00000002               .RES.W      1
    00000958              L696:
    00000958 4265726174             .SDATA      "Beratende Stelle"
             656E646520   
             5374656C6C   
             65           
    00000968 00                     .DATA.B     H'00
    00000969 00000001               .RES.B      1
    0000096A 00000002               .RES.W      1
    0000096C              L701:
    0000096C 455250202F             .SDATA      "ERP / SAP Systeme 1/"
             2053415020   
             5379737465   
             6D6520312F   
    00000980 00                     .DATA.B     H'00
    00000981 00000001               .RES.B      1
    00000982 00000002               .RES.W      1
    00000984              L702:
    00000984 4D65726B6D             .SDATA      "Merkmale:"
             616C653A     
    0000098D 00                     .DATA.B     H'00
    0000098E 00000002               .RES.W      1
    00000990              L703:
    00000990 2D6469656E             .SDATA      "-dient der"
             7420646572   
    0000099A 00                     .DATA.B     H'00
    0000099B 00000001               .RES.B      1
    0000099C              L704:
    0000099C 6265617262             .SDATA      "bearbeitung von"
             656974756E   
             6720766F6E   
    000009AB 00                     .DATA.B     H'00
    000009AC              L705:
    000009AC 4765736368             .SDATA      "Geschaftsprozessen"
             6166747370   
             726F7A6573   
             73656E       
    000009BE 00                     .DATA.B     H'00
    000009BF 00000001               .RES.B      1
    000009C0              L706:
    000009C0 2D7A656E74             .SDATA      "-zentrale Datenbank"
             72616C6520   
             446174656E   
             62616E6B     
    000009D3 00                     .DATA.B     H'00
    000009D4              L707:
    000009D4 2D5374616D             .SDATA      "-Stammdaten"
             6D64617465   
             6E           
    000009DF 00                     .DATA.B     H'00
    000009E0              L714:
    000009E0 455250202F             .SDATA      "ERP / SAP Systeme 2/"
             2053415020   
             5379737465   
             6D6520322F   
    000009F4 00                     .DATA.B     H'00
    000009F5 00000001               .RES.B      1




SH SERIES C/C++ Compiler (Ver. 6.0C)                                                                 14-Jun-2020 13:18:49  PAGE   85


SCT OFFSET   CODE       C LABEL     INSTRUCTION OPERAND    COMMENT

    000009F6 00000002               .RES.W      1
    000009F8              L715:
    000009F8 2D496E7465             .SDATA      "-Integration vertik"
             6772617469   
             6F6E207665   
             7274696B     
    00000A0B 00                     .DATA.B     H'00
    00000A0C              L716:
    00000A0C 616C652F68             .SDATA      "ale/horizontale"
             6F72697A6F   
             6E74616C65   
    00000A1B 00                     .DATA.B     H'00
    00000A1C              L717:
    00000A1C 2D496E2076             .SDATA      "-In vers Komponente"
             657273204B   
             6F6D706F6E   
             656E7465     
    00000A2F 00                     .DATA.B     H'00
    00000A30              L718:
    00000A30 6175736667             .SDATA      "ausfgeteilt:"
             657465696C   
             743A         
    00000A3C 00                     .DATA.B     H'00
    00000A3D 00000001               .RES.B      1
    00000A3E 00000002               .RES.W      1
    00000A40              L719:
    00000A40 5665727472             .SDATA      "Vertrieb, ..."
             6965622C20   
             2E2E2E       
    00000A4D 00                     .DATA.B     H'00
    00000A4E 00000002               .RES.W      1
    00000A50              L727:
    00000A50 455250202F             .SDATA      "ERP / SAP Systeme 3/"
             2053415020   
             5379737465   
             6D6520332F   
    00000A64 00                     .DATA.B     H'00
    00000A65 00000001               .RES.B      1
    00000A66 00000002               .RES.W      1
    00000A68              L728:
    00000A68 566F727465             .SDATA      "Vorteile:"
             696C653A     
    00000A71 00                     .DATA.B     H'00
    00000A72 00000002               .RES.W      1
    00000A74              L729:
    00000A74 2D56657262             .SDATA      "-Verbesserung/Besc-"
             6573736572   
             756E672F42   
             6573632D     
    00000A87 00                     .DATA.B     H'00
    00000A88              L730:
    00000A88 686C65756E             .SDATA      "hleunigung von"
             6967756E67   
             20766F6E     
    00000A96 00                     .DATA.B     H'00
    00000A97 00000001               .RES.B      1
    00000A98              L731:




SH SERIES C/C++ Compiler (Ver. 6.0C)                                                                 14-Jun-2020 13:18:49  PAGE   86


SCT OFFSET   CODE       C LABEL     INSTRUCTION OPERAND    COMMENT

    00000A98 50726F7A65             .SDATA      "Prozessen"
             7373656E     
    00000AA1 00                     .DATA.B     H'00
    00000AA2 00000002               .RES.W      1
    00000AA4              L732:
    00000AA4 2D44617465             .SDATA      "-Daten werden in"
             6E20776572   
             64656E2069   
             6E           
    00000AB4 00                     .DATA.B     H'00
    00000AB5 00000001               .RES.B      1
    00000AB6 00000002               .RES.W      1
    00000AB8              L733:
    00000AB8 456368747A             .SDATA      "Echtzeit gesaved"
             6569742067   
             6573617665   
             64           
    00000AC8 00                     .DATA.B     H'00
    00000AC9 00000001               .RES.B      1
    00000ACA 00000002               .RES.W      1
    00000ACC              L734:
    00000ACC 616C6C6520             .SDATA      "alle haben Zugriff"
             686162656E   
             205A756772   
             696666       
    00000ADE 00                     .DATA.B     H'00
    00000ADF 00000001               .RES.B      1
    00000AE0              L742:
    00000AE0 455250202F             .SDATA      "ERP / SAP Systeme 4/"
             2053415020   
             5379737465   
             6D6520342F   
    00000AF4 00                     .DATA.B     H'00
    00000AF5 00000001               .RES.B      1
    00000AF6 00000002               .RES.W      1
    00000AF8              L743:
    00000AF8 2D4175746F             .SDATA      "-Automatisiert pro-"
             6D61746973   
             6965727420   
             70726F2D     
    00000B0B 00                     .DATA.B     H'00
    00000B0C              L744:
    00000B0C 7A65737365             .SDATA      "zesse, gespart"
             2C20676573   
             70617274     
    00000B1A 00                     .DATA.B     H'00
    00000B1B 00000001               .RES.B      1
    00000B1C              L745:
    00000B1C 7769726420             .SDATA      "wird Arbeitsplatz"
             4172626569   
             7473706C61   
             747A         
    00000B2D 00                     .DATA.B     H'00
    00000B2E 00000002               .RES.W      1
    00000B30              L753:
    00000B30 455250202F             .SDATA      "ERP / SAP Systeme 5/"
             2053415020   




SH SERIES C/C++ Compiler (Ver. 6.0C)                                                                 14-Jun-2020 13:18:49  PAGE   87


SCT OFFSET   CODE       C LABEL     INSTRUCTION OPERAND    COMMENT

             5379737465   
             6D6520352F   
    00000B44 00                     .DATA.B     H'00
    00000B45 00000001               .RES.B      1
    00000B46 00000002               .RES.W      1
    00000B48              L754:
    00000B48 4E61636874             .SDATA      "Nachteile:"
             65696C653A   
    00000B52 00                     .DATA.B     H'00
    00000B53 00000001               .RES.B      1
    00000B54              L755:
    00000B54 2D416E7363             .SDATA      "-Anschaffungskosten"
             6861666675   
             6E67736B6F   
             7374656E     
    00000B67 00                     .DATA.B     H'00
    00000B68              L756:
    00000B68 2D41626861             .SDATA      "-Abhaengigkeit"
             656E676967   
             6B656974     
    00000B76 00                     .DATA.B     H'00
    00000B77 00000001               .RES.B      1
    00000B78              L757:
    00000B78 2D686F6865             .SDATA      "-hohe komplexitat"
             206B6F6D70   
             6C65786974   
             6174         
    00000B89 00                     .DATA.B     H'00
    00000B8A 00000002               .RES.W      1
    00000B8C              L758:
    00000B8C 2D64617565             .SDATA      "-dauerhaft kontrol-"
             7268616674   
             206B6F6E74   
             726F6C2D     
    00000B9F 00                     .DATA.B     H'00
    00000BA0              L759:
    00000BA0 6C65206465             .SDATA      "le der Mitarbeiter"
             72204D6974   
             6172626569   
             746572       
    00000BB2 00                     .DATA.B     H'00
    00000BB3 00000001               .RES.B      1
    00000BB4              L353:
    00000BB4 4C65726E66             .SDATA      "Lernfeld 1"
             656C642031   
    00000BBE 00                     .DATA.B     H'00
    00000BBF 00000001               .RES.B      1
    00000BC0              L354:
    00000BC0 4C65726E66             .SDATA      "Lernfeld 2"
             656C642032   
    00000BCA 00                     .DATA.B     H'00
    00000BCB 00000001               .RES.B      1
    00000BCC              L355:
    00000BCC 5465737433             .SDATA      "Test3"
    00000BD1 00                     .DATA.B     H'00
    00000BD2 00000002               .RES.W      1
    00000BD4              L356:




SH SERIES C/C++ Compiler (Ver. 6.0C)                                                                 14-Jun-2020 13:18:49  PAGE   88


SCT OFFSET   CODE       C LABEL     INSTRUCTION OPERAND    COMMENT

    00000BD4 5465737434             .SDATA      "Test4"
    00000BD9 00                     .DATA.B     H'00
    00000BDA 00000002               .RES.W      1
    00000BDC              L357:
    00000BDC 5465737435             .SDATA      "Test5"
    00000BE1 00                     .DATA.B     H'00
    00000BE2 00000002               .RES.W      1
    00000BE4              L358:
    00000BE4 5465737436             .SDATA      "Test6"
    00000BE9 00                     .DATA.B     H'00
    00000BEA 00000002               .RES.W      1
    00000BEC              L422:
    00000BEC 4F6B6F6E6F             .SDATA      "Okonomisches Prinzip"
             6D69736368   
             6573205072   
             696E7A6970   
    00000C00 00                     .DATA.B     H'00
    00000C01 00000001               .RES.B      1
    00000C02 00000002               .RES.W      1
    00000C04              L423:
    00000C04 5265636874             .SDATA      "Rechtsformen"
             73666F726D   
             656E         
    00000C10 00                     .DATA.B     H'00
    00000C11 00000001               .RES.B      1
    00000C12 00000002               .RES.W      1
    00000C14              L424:
    00000C14 476577696E             .SDATA      "Gewinnverteilung"
             6E76657274   
             65696C756E   
             67           
    00000C24 00                     .DATA.B     H'00
    00000C25 00000001               .RES.B      1
    00000C26 00000002               .RES.W      1
    00000C28              L425:
    00000C28 4861667475             .SDATA      "Haftung, Infos"
             6E672C2049   
             6E666F73     
    00000C36 00                     .DATA.B     H'00
    00000C37 00000001               .RES.B      1
    00000C38              L426:
    00000C38 5072656973             .SDATA      "Preisbildungsprozes"
             62696C6475   
             6E67737072   
             6F7A6573     
    00000C4B 00                     .DATA.B     H'00
    00000C4C              L606:
    00000C4C 4F7267616E             .SDATA      "Organisation"
             6973617469   
             6F6E         
    00000C58 00                     .DATA.B     H'00
    00000C59 00000001               .RES.B      1
    00000C5A 00000002               .RES.W      1
    00000C5C              L607:
    00000C5C 526567656C             .SDATA      "Regelkreis"
             6B72656973   
    00000C66 00                     .DATA.B     H'00




SH SERIES C/C++ Compiler (Ver. 6.0C)                                                                 14-Jun-2020 13:18:49  PAGE   89


SCT OFFSET   CODE       C LABEL     INSTRUCTION OPERAND    COMMENT

    00000C67 00000001               .RES.B      1
    00000C68              L608:
    00000C68 4F7267616E             .SDATA      "Organigramm"
             696772616D   
             6D           
    00000C73 00                     .DATA.B     H'00
    00000C74              L609:
    00000C74 455250202F             .SDATA      "ERP / SAP Systeme"
             2053415020   
             5379737465   
             6D65         
    00000C85 00                     .DATA.B     H'00
B_B 00000000              _BR_Size:                        ; static: BR_Size
    00000000 00000004               .RES.L      1















































SH SERIES C/C++ Compiler (Ver. 6.0C)                                                                 14-Jun-2020 13:18:49  PAGE    1


******** STATISTICS INFORMATION ********


********** ERROR INFORMATION ***********

NUMBER OF ERRORS:           0
NUMBER OF WARNINGS:         0




******* SOURCE LINE INFORMATION ********

COMPILED SOURCE LINE:     1044



******* SECTION SIZE INFORMATION *******

PROGRAM  SECTION (P):                               0000166C Byte(s)
PROGRAM  SECTION (P_BR_Size):                       00000000 Byte(s)
PROGRAM  SECTION (P_TOP):                           0000000C Byte(s)
CONSTANT SECTION (C):                               00000C86 Byte(s)
CONSTANT SECTION (C_BR_Size):                       00000000 Byte(s)
CONSTANT SECTION (C_TOP):                           00000000 Byte(s)
DATA     SECTION (D):                               00000004 Byte(s)
DATA     SECTION (D_BR_Size):                       00000000 Byte(s)
DATA     SECTION (D_TOP):                           00000000 Byte(s)
BSS      SECTION (B):                               00000000 Byte(s)
BSS      SECTION (B_BR_Size):                       00000004 Byte(s)
BSS      SECTION (B_TOP):                           00000000 Byte(s)

 TOTAL PROGRAM SIZE: 00002306 Byte(s)



********** LABEL INFORMATION ***********

NUMBER OF EXTERNAL REFERENCE SYMBOLS:            8
NUMBER OF EXTERNAL DEFINITION SYMBOLS:          31
NUMBER OF INTERNAL/EXTERNAL SYMBOLS:           355






















*** COMMAND PARAMETER ***


  -subcommand=C:\Users\Luca\AppData\Local\Temp\hmkA52C.tmp 

